
3pi_app1.elf:     file format elf32-avr

Sections:
Idx Name          Size      VMA       LMA       File off  Algn
  0 .data         0000004a  00800100  000021b8  0000224c  2**0
                  CONTENTS, ALLOC, LOAD, DATA
  1 .text         000021b8  00000000  00000000  00000094  2**1
                  CONTENTS, ALLOC, LOAD, READONLY, CODE
  2 .bss          0000006b  0080014a  0080014a  00002296  2**0
                  ALLOC
  3 .stab         00006dc8  00000000  00000000  00002298  2**2
                  CONTENTS, READONLY, DEBUGGING
  4 .stabstr      00008ce2  00000000  00000000  00009060  2**0
                  CONTENTS, READONLY, DEBUGGING
  5 .comment      00000041  00000000  00000000  00011d42  2**0
                  CONTENTS, READONLY
  6 .note.gnu.avr.deviceinfo 00000040  00000000  00000000  00011d84  2**2
                  CONTENTS, READONLY
  7 .debug_aranges 00000040  00000000  00000000  00011dc4  2**0
                  CONTENTS, READONLY, DEBUGGING
  8 .debug_info   000010b2  00000000  00000000  00011e04  2**0
                  CONTENTS, READONLY, DEBUGGING
  9 .debug_abbrev 00000788  00000000  00000000  00012eb6  2**0
                  CONTENTS, READONLY, DEBUGGING
 10 .debug_line   00000815  00000000  00000000  0001363e  2**0
                  CONTENTS, READONLY, DEBUGGING
 11 .debug_frame  000000b4  00000000  00000000  00013e54  2**2
                  CONTENTS, READONLY, DEBUGGING
 12 .debug_str    00000555  00000000  00000000  00013f08  2**0
                  CONTENTS, READONLY, DEBUGGING
 13 .debug_loc    0000020d  00000000  00000000  0001445d  2**0
                  CONTENTS, READONLY, DEBUGGING
 14 .debug_ranges 00000030  00000000  00000000  0001466a  2**0
                  CONTENTS, READONLY, DEBUGGING

Disassembly of section .text:

00000000 <__vectors>:
       0:	0c 94 57 00 	jmp	0xae	; 0xae <__dtors_end>
       4:	0c 94 74 00 	jmp	0xe8	; 0xe8 <__bad_interrupt>
       8:	0c 94 74 00 	jmp	0xe8	; 0xe8 <__bad_interrupt>
       c:	0c 94 74 00 	jmp	0xe8	; 0xe8 <__bad_interrupt>
      10:	0c 94 74 00 	jmp	0xe8	; 0xe8 <__bad_interrupt>
      14:	0c 94 74 00 	jmp	0xe8	; 0xe8 <__bad_interrupt>
      18:	0c 94 74 00 	jmp	0xe8	; 0xe8 <__bad_interrupt>
      1c:	0c 94 74 00 	jmp	0xe8	; 0xe8 <__bad_interrupt>
      20:	0c 94 74 00 	jmp	0xe8	; 0xe8 <__bad_interrupt>
      24:	0c 94 1e 09 	jmp	0x123c	; 0x123c <__vector_9>
      28:	0c 94 74 00 	jmp	0xe8	; 0xe8 <__bad_interrupt>
      2c:	0c 94 74 00 	jmp	0xe8	; 0xe8 <__bad_interrupt>
      30:	0c 94 74 00 	jmp	0xe8	; 0xe8 <__bad_interrupt>
      34:	0c 94 e6 05 	jmp	0xbcc	; 0xbcc <__vector_13>
      38:	0c 94 74 00 	jmp	0xe8	; 0xe8 <__bad_interrupt>
      3c:	0c 94 74 00 	jmp	0xe8	; 0xe8 <__bad_interrupt>
      40:	0c 94 74 00 	jmp	0xe8	; 0xe8 <__bad_interrupt>
      44:	0c 94 74 00 	jmp	0xe8	; 0xe8 <__bad_interrupt>
      48:	0c 94 74 00 	jmp	0xe8	; 0xe8 <__bad_interrupt>
      4c:	0c 94 74 00 	jmp	0xe8	; 0xe8 <__bad_interrupt>
      50:	0c 94 74 00 	jmp	0xe8	; 0xe8 <__bad_interrupt>
      54:	0c 94 74 00 	jmp	0xe8	; 0xe8 <__bad_interrupt>
      58:	0c 94 74 00 	jmp	0xe8	; 0xe8 <__bad_interrupt>
      5c:	0c 94 74 00 	jmp	0xe8	; 0xe8 <__bad_interrupt>
      60:	0c 94 74 00 	jmp	0xe8	; 0xe8 <__bad_interrupt>
      64:	0c 94 74 00 	jmp	0xe8	; 0xe8 <__bad_interrupt>

00000068 <__trampolines_end>:
      68:	00 00       	nop
      6a:	00 00       	nop
      6c:	00 00       	nop
      6e:	00 1f       	adc	r16, r16
      70:	1f 1f       	adc	r17, r31
      72:	1f 1f       	adc	r17, r31
      74:	1f 1f       	adc	r17, r31

00000076 <go>:
      76:	4c 31 36 20 63 64 65 67 72 65 67 34 00              L16 cdegreg4.

00000083 <welcome>:
      83:	3e 67 33 32 3e 3e 63 33 32 00                       >g32>>c32.

0000008d <demo_name_line2>:
      8d:	66 6f 6c 6c 6f 77 65 72 00                          follower.

00000096 <demo_name_line1>:
      96:	4c 69 6e 65 00                                      Line.

0000009b <welcome_line2>:
      9b:	33 f7 20 52 6f 62 6f 74 00                          3. Robot.

000000a4 <welcome_line1>:
      a4:	20 50 6f 6c 6f 6c 75 00                              Pololu.

000000ac <__ctors_end>:
      ac:	e2 09       	sbc	r30, r2

000000ae <__dtors_end>:
      ae:	11 24       	eor	r1, r1
      b0:	1f be       	out	0x3f, r1	; 63
      b2:	cf ef       	ldi	r28, 0xFF	; 255
      b4:	d8 e0       	ldi	r29, 0x08	; 8
      b6:	de bf       	out	0x3e, r29	; 62
      b8:	cd bf       	out	0x3d, r28	; 61

000000ba <__do_copy_data>:
      ba:	11 e0       	ldi	r17, 0x01	; 1
      bc:	a0 e0       	ldi	r26, 0x00	; 0
      be:	b1 e0       	ldi	r27, 0x01	; 1
      c0:	e8 eb       	ldi	r30, 0xB8	; 184
      c2:	f1 e2       	ldi	r31, 0x21	; 33
      c4:	02 c0       	rjmp	.+4      	; 0xca <__do_copy_data+0x10>
      c6:	05 90       	lpm	r0, Z+
      c8:	0d 92       	st	X+, r0
      ca:	aa 34       	cpi	r26, 0x4A	; 74
      cc:	b1 07       	cpc	r27, r17
      ce:	d9 f7       	brne	.-10     	; 0xc6 <__do_copy_data+0xc>

000000d0 <__do_clear_bss>:
      d0:	21 e0       	ldi	r18, 0x01	; 1
      d2:	aa e4       	ldi	r26, 0x4A	; 74
      d4:	b1 e0       	ldi	r27, 0x01	; 1
      d6:	01 c0       	rjmp	.+2      	; 0xda <.do_clear_bss_start>

000000d8 <.do_clear_bss_loop>:
      d8:	1d 92       	st	X+, r1

000000da <.do_clear_bss_start>:
      da:	a5 3b       	cpi	r26, 0xB5	; 181
      dc:	b2 07       	cpc	r27, r18
      de:	e1 f7       	brne	.-8      	; 0xd8 <.do_clear_bss_loop>
      e0:	0e 94 9e 01 	call	0x33c	; 0x33c <main>
      e4:	0c 94 cf 10 	jmp	0x219e	; 0x219e <__do_global_dtors>

000000e8 <__bad_interrupt>:
      e8:	0c 94 00 00 	jmp	0	; 0x0 <__vectors>

000000ec <load_custom_characters>:
};


void load_custom_characters()
{
    lcd_load_custom_character(levels+0,0); // no offset, e.g. one bar
      ec:	60 e0       	ldi	r22, 0x00	; 0
      ee:	88 e6       	ldi	r24, 0x68	; 104
      f0:	90 e0       	ldi	r25, 0x00	; 0
      f2:	0e 94 17 07 	call	0xe2e	; 0xe2e <lcd_load_custom_character>
    lcd_load_custom_character(levels+1,1); // two bars
      f6:	61 e0       	ldi	r22, 0x01	; 1
      f8:	89 e6       	ldi	r24, 0x69	; 105
      fa:	90 e0       	ldi	r25, 0x00	; 0
      fc:	0e 94 17 07 	call	0xe2e	; 0xe2e <lcd_load_custom_character>
    lcd_load_custom_character(levels+2,2); // etc...
     100:	62 e0       	ldi	r22, 0x02	; 2
     102:	8a e6       	ldi	r24, 0x6A	; 106
     104:	90 e0       	ldi	r25, 0x00	; 0
     106:	0e 94 17 07 	call	0xe2e	; 0xe2e <lcd_load_custom_character>
    lcd_load_custom_character(levels+3,3);
     10a:	63 e0       	ldi	r22, 0x03	; 3
     10c:	8b e6       	ldi	r24, 0x6B	; 107
     10e:	90 e0       	ldi	r25, 0x00	; 0
     110:	0e 94 17 07 	call	0xe2e	; 0xe2e <lcd_load_custom_character>
    lcd_load_custom_character(levels+4,4);
     114:	64 e0       	ldi	r22, 0x04	; 4
     116:	8c e6       	ldi	r24, 0x6C	; 108
     118:	90 e0       	ldi	r25, 0x00	; 0
     11a:	0e 94 17 07 	call	0xe2e	; 0xe2e <lcd_load_custom_character>
    lcd_load_custom_character(levels+5,5);
     11e:	65 e0       	ldi	r22, 0x05	; 5
     120:	8d e6       	ldi	r24, 0x6D	; 109
     122:	90 e0       	ldi	r25, 0x00	; 0
     124:	0e 94 17 07 	call	0xe2e	; 0xe2e <lcd_load_custom_character>
    lcd_load_custom_character(levels+6,6);
     128:	66 e0       	ldi	r22, 0x06	; 6
     12a:	8e e6       	ldi	r24, 0x6E	; 110
     12c:	90 e0       	ldi	r25, 0x00	; 0
     12e:	0e 94 17 07 	call	0xe2e	; 0xe2e <lcd_load_custom_character>
    clear(); // the LCD must be cleared for the characters to take effect
     132:	0e 94 8a 07 	call	0xf14	; 0xf14 <clear>
     136:	08 95       	ret

00000138 <display_readings>:
}

// This function displays the sensor readings using a bar graph.
void display_readings(const unsigned int *calibrated_values)
{
     138:	ef 92       	push	r14
     13a:	ff 92       	push	r15
     13c:	0f 93       	push	r16
     13e:	1f 93       	push	r17
     140:	cf 93       	push	r28
     142:	df 93       	push	r29
     144:	cd b7       	in	r28, 0x3d	; 61
     146:	de b7       	in	r29, 0x3e	; 62
     148:	2a 97       	sbiw	r28, 0x0a	; 10
     14a:	0f b6       	in	r0, 0x3f	; 63
     14c:	f8 94       	cli
     14e:	de bf       	out	0x3e, r29	; 62
     150:	0f be       	out	0x3f, r0	; 63
     152:	cd bf       	out	0x3d, r28	; 61
     154:	8c 01       	movw	r16, r24
     156:	7c 01       	movw	r14, r24
     158:	8a e0       	ldi	r24, 0x0A	; 10
     15a:	e8 0e       	add	r14, r24
     15c:	f1 1c       	adc	r15, r1
    unsigned char i;
    
    for(i=0;i<5;i++) {
        
        const char display_characters[10] = {' ',0,0,1,2,3,4,5,6,255};
     15e:	8a e0       	ldi	r24, 0x0A	; 10
     160:	e4 e1       	ldi	r30, 0x14	; 20
     162:	f1 e0       	ldi	r31, 0x01	; 1
     164:	de 01       	movw	r26, r28
     166:	11 96       	adiw	r26, 0x01	; 1
     168:	01 90       	ld	r0, Z+
     16a:	0d 92       	st	X+, r0
     16c:	8a 95       	dec	r24
     16e:	e1 f7       	brne	.-8      	; 0x168 <display_readings+0x30>
        
        
        char c = display_characters[calibrated_values[i]/101];
     170:	f8 01       	movw	r30, r16
     172:	21 91       	ld	r18, Z+
     174:	31 91       	ld	r19, Z+
     176:	8f 01       	movw	r16, r30
     178:	a7 e4       	ldi	r26, 0x47	; 71
     17a:	b4 e1       	ldi	r27, 0x14	; 20
     17c:	0e 94 4f 0f 	call	0x1e9e	; 0x1e9e <__umulhisi3>
     180:	96 95       	lsr	r25
     182:	87 95       	ror	r24
     184:	96 95       	lsr	r25
     186:	87 95       	ror	r24
     188:	96 95       	lsr	r25
     18a:	87 95       	ror	r24
     18c:	e1 e0       	ldi	r30, 0x01	; 1
     18e:	f0 e0       	ldi	r31, 0x00	; 0
     190:	ec 0f       	add	r30, r28
     192:	fd 1f       	adc	r31, r29
     194:	e8 0f       	add	r30, r24
     196:	f9 1f       	adc	r31, r25
        
        // Display the bar graph character.
        print_character(c);
     198:	80 81       	ld	r24, Z
     19a:	0e 94 1a 07 	call	0xe34	; 0xe34 <print_character>
// This function displays the sensor readings using a bar graph.
void display_readings(const unsigned int *calibrated_values)
{
    unsigned char i;
    
    for(i=0;i<5;i++) {
     19e:	0e 15       	cp	r16, r14
     1a0:	1f 05       	cpc	r17, r15
     1a2:	e9 f6       	brne	.-70     	; 0x15e <display_readings+0x26>
        char c = display_characters[calibrated_values[i]/101];
        
        // Display the bar graph character.
        print_character(c);
    }
}
     1a4:	2a 96       	adiw	r28, 0x0a	; 10
     1a6:	0f b6       	in	r0, 0x3f	; 63
     1a8:	f8 94       	cli
     1aa:	de bf       	out	0x3e, r29	; 62
     1ac:	0f be       	out	0x3f, r0	; 63
     1ae:	cd bf       	out	0x3d, r28	; 61
     1b0:	df 91       	pop	r29
     1b2:	cf 91       	pop	r28
     1b4:	1f 91       	pop	r17
     1b6:	0f 91       	pop	r16
     1b8:	ff 90       	pop	r15
     1ba:	ef 90       	pop	r14
     1bc:	08 95       	ret

000001be <initialize>:

// Initializes the 3pi, displays a welcome message, calibrates, and
// plays the initial music.
void initialize()
{
     1be:	0f 93       	push	r16
     1c0:	1f 93       	push	r17
     1c2:	cf 93       	push	r28
     1c4:	df 93       	push	r29
     1c6:	cd b7       	in	r28, 0x3d	; 61
     1c8:	de b7       	in	r29, 0x3e	; 62
     1ca:	2a 97       	sbiw	r28, 0x0a	; 10
     1cc:	0f b6       	in	r0, 0x3f	; 63
     1ce:	f8 94       	cli
     1d0:	de bf       	out	0x3e, r29	; 62
     1d2:	0f be       	out	0x3f, r0	; 63
     1d4:	cd bf       	out	0x3d, r28	; 61
    unsigned int counter; // used as a simple timer
    unsigned int sensors[5]; // an array to hold sensor values
    
    pololu_3pi_init(2000);
     1d6:	80 ed       	ldi	r24, 0xD0	; 208
     1d8:	97 e0       	ldi	r25, 0x07	; 7
     1da:	0e 94 de 09 	call	0x13bc	; 0x13bc <pololu_3pi_init>
    load_custom_characters(); // load the custom characters
     1de:	0e 94 76 00 	call	0xec	; 0xec <load_custom_characters>
    
    // Play welcome music and display a message
    print_from_program_space(welcome_line1);
     1e2:	84 ea       	ldi	r24, 0xA4	; 164
     1e4:	90 e0       	ldi	r25, 0x00	; 0
     1e6:	0e 94 aa 07 	call	0xf54	; 0xf54 <print_from_program_space>
    lcd_goto_xy(0,1);
     1ea:	61 e0       	ldi	r22, 0x01	; 1
     1ec:	80 e0       	ldi	r24, 0x00	; 0
     1ee:	0e 94 22 08 	call	0x1044	; 0x1044 <lcd_goto_xy>
    print_from_program_space(welcome_line2);
     1f2:	8b e9       	ldi	r24, 0x9B	; 155
     1f4:	90 e0       	ldi	r25, 0x00	; 0
     1f6:	0e 94 aa 07 	call	0xf54	; 0xf54 <print_from_program_space>
    play_from_program_space(welcome);
     1fa:	83 e8       	ldi	r24, 0x83	; 131
     1fc:	90 e0       	ldi	r25, 0x00	; 0
     1fe:	0e 94 57 06 	call	0xcae	; 0xcae <play_from_program_space>
    delay_ms(1000);
     202:	88 ee       	ldi	r24, 0xE8	; 232
     204:	93 e0       	ldi	r25, 0x03	; 3
     206:	0e 94 66 09 	call	0x12cc	; 0x12cc <delay_ms>
    
    clear();
     20a:	0e 94 8a 07 	call	0xf14	; 0xf14 <clear>
    print_from_program_space(demo_name_line1);
     20e:	86 e9       	ldi	r24, 0x96	; 150
     210:	90 e0       	ldi	r25, 0x00	; 0
     212:	0e 94 aa 07 	call	0xf54	; 0xf54 <print_from_program_space>
    lcd_goto_xy(0,1);
     216:	61 e0       	ldi	r22, 0x01	; 1
     218:	80 e0       	ldi	r24, 0x00	; 0
     21a:	0e 94 22 08 	call	0x1044	; 0x1044 <lcd_goto_xy>
    print_from_program_space(demo_name_line2);
     21e:	8d e8       	ldi	r24, 0x8D	; 141
     220:	90 e0       	ldi	r25, 0x00	; 0
     222:	0e 94 aa 07 	call	0xf54	; 0xf54 <print_from_program_space>
    delay_ms(1000);
     226:	88 ee       	ldi	r24, 0xE8	; 232
     228:	93 e0       	ldi	r25, 0x03	; 3
     22a:	0e 94 66 09 	call	0x12cc	; 0x12cc <delay_ms>
    
    // Display battery voltage and wait for button press
    while(!button_is_pressed(BUTTON_B))
     22e:	1b c0       	rjmp	.+54     	; 0x266 <initialize+0xa8>
int read_temperature_c(void);

unsigned int read_battery_millivolts_3pi(void);
static inline unsigned int read_battery_millivolts(void)
{
  return read_battery_millivolts_3pi();
     230:	0e 94 2c 03 	call	0x658	; 0x658 <read_battery_millivolts_3pi>
     234:	8c 01       	movw	r16, r24
    {
        int bat = read_battery_millivolts();
        
        clear();
     236:	0e 94 8a 07 	call	0xf14	; 0xf14 <clear>
        print_long(bat);
     23a:	b8 01       	movw	r22, r16
     23c:	11 0f       	add	r17, r17
     23e:	88 0b       	sbc	r24, r24
     240:	99 0b       	sbc	r25, r25
     242:	0e 94 ff 07 	call	0xffe	; 0xffe <print_long>
        print("mV");
     246:	8b e3       	ldi	r24, 0x3B	; 59
     248:	91 e0       	ldi	r25, 0x01	; 1
     24a:	0e 94 99 07 	call	0xf32	; 0xf32 <print>
        lcd_goto_xy(0,1);
     24e:	61 e0       	ldi	r22, 0x01	; 1
     250:	80 e0       	ldi	r24, 0x00	; 0
     252:	0e 94 22 08 	call	0x1044	; 0x1044 <lcd_goto_xy>
        print("Press B");
     256:	8e e3       	ldi	r24, 0x3E	; 62
     258:	91 e0       	ldi	r25, 0x01	; 1
     25a:	0e 94 99 07 	call	0xf32	; 0xf32 <print>
        
        delay_ms(100);
     25e:	84 e6       	ldi	r24, 0x64	; 100
     260:	90 e0       	ldi	r25, 0x00	; 0
     262:	0e 94 66 09 	call	0x12cc	; 0x12cc <delay_ms>
    lcd_goto_xy(0,1);
    print_from_program_space(demo_name_line2);
    delay_ms(1000);
    
    // Display battery voltage and wait for button press
    while(!button_is_pressed(BUTTON_B))
     266:	80 e1       	ldi	r24, 0x10	; 16
     268:	0e 94 1b 09 	call	0x1236	; 0x1236 <button_is_pressed>
     26c:	88 23       	and	r24, r24
     26e:	01 f3       	breq	.-64     	; 0x230 <initialize+0x72>
        delay_ms(100);
    }
    
    // Always wait for the button to be released so that 3pi doesn't
    // start moving until your hand is away from it.
    wait_for_button_release(BUTTON_B);
     270:	80 e1       	ldi	r24, 0x10	; 16
     272:	0e 94 07 09 	call	0x120e	; 0x120e <wait_for_button_release>
    delay_ms(1000);
     276:	88 ee       	ldi	r24, 0xE8	; 232
     278:	93 e0       	ldi	r25, 0x03	; 3
     27a:	0e 94 66 09 	call	0x12cc	; 0x12cc <delay_ms>
     27e:	0c ee       	ldi	r16, 0xEC	; 236
     280:	1f ef       	ldi	r17, 0xFF	; 255
    
    // Auto-calibration: turn right and left while calibrating the
    // sensors.
    for(counter=0;counter<80;counter++)
    {
        if(counter < 20 || counter >= 60)
     282:	08 32       	cpi	r16, 0x28	; 40
     284:	11 05       	cpc	r17, r1
     286:	38 f0       	brcs	.+14     	; 0x296 <initialize+0xd8>
            set_motors(40,-40);
     288:	68 ed       	ldi	r22, 0xD8	; 216
     28a:	7f ef       	ldi	r23, 0xFF	; 255
     28c:	88 e2       	ldi	r24, 0x28	; 40
     28e:	90 e0       	ldi	r25, 0x00	; 0
     290:	0e 94 d8 08 	call	0x11b0	; 0x11b0 <set_motors>
     294:	06 c0       	rjmp	.+12     	; 0x2a2 <initialize+0xe4>
        else
            set_motors(-40,40);
     296:	68 e2       	ldi	r22, 0x28	; 40
     298:	70 e0       	ldi	r23, 0x00	; 0
     29a:	88 ed       	ldi	r24, 0xD8	; 216
     29c:	9f ef       	ldi	r25, 0xFF	; 255
     29e:	0e 94 d8 08 	call	0x11b0	; 0x11b0 <set_motors>
        
        
        calibrate_line_sensors(IR_EMITTERS_ON);
     2a2:	81 e0       	ldi	r24, 0x01	; 1
     2a4:	0e 94 a2 09 	call	0x1344	; 0x1344 <calibrate_line_sensors>
        
        // Since our counter runs to 80, the total delay will be
        // 80*20 = 1600 ms.
        delay_ms(20);
     2a8:	84 e1       	ldi	r24, 0x14	; 20
     2aa:	90 e0       	ldi	r25, 0x00	; 0
     2ac:	0e 94 66 09 	call	0x12cc	; 0x12cc <delay_ms>
     2b0:	0f 5f       	subi	r16, 0xFF	; 255
     2b2:	1f 4f       	sbci	r17, 0xFF	; 255
    wait_for_button_release(BUTTON_B);
    delay_ms(1000);
    
    // Auto-calibration: turn right and left while calibrating the
    // sensors.
    for(counter=0;counter<80;counter++)
     2b4:	0c 33       	cpi	r16, 0x3C	; 60
     2b6:	11 05       	cpc	r17, r1
     2b8:	21 f7       	brne	.-56     	; 0x282 <initialize+0xc4>
        
        // Since our counter runs to 80, the total delay will be
        // 80*20 = 1600 ms.
        delay_ms(20);
    }
    set_motors(0,0);
     2ba:	60 e0       	ldi	r22, 0x00	; 0
     2bc:	70 e0       	ldi	r23, 0x00	; 0
     2be:	80 e0       	ldi	r24, 0x00	; 0
     2c0:	90 e0       	ldi	r25, 0x00	; 0
     2c2:	0e 94 d8 08 	call	0x11b0	; 0x11b0 <set_motors>
    
    // Display calibrated values as a bar graph.
    while(!button_is_pressed(BUTTON_B))
     2c6:	19 c0       	rjmp	.+50     	; 0x2fa <initialize+0x13c>
    {
        // Read the sensor values and get the position measurement.
        unsigned int position = read_line(sensors,IR_EMITTERS_ON);
     2c8:	61 e0       	ldi	r22, 0x01	; 1
     2ca:	ce 01       	movw	r24, r28
     2cc:	01 96       	adiw	r24, 0x01	; 1
     2ce:	0e 94 a8 09 	call	0x1350	; 0x1350 <read_line>
     2d2:	8c 01       	movw	r16, r24
        
        clear();
     2d4:	0e 94 8a 07 	call	0xf14	; 0xf14 <clear>
        print_long(position);
     2d8:	b8 01       	movw	r22, r16
     2da:	80 e0       	ldi	r24, 0x00	; 0
     2dc:	90 e0       	ldi	r25, 0x00	; 0
     2de:	0e 94 ff 07 	call	0xffe	; 0xffe <print_long>
        lcd_goto_xy(0,1);
     2e2:	61 e0       	ldi	r22, 0x01	; 1
     2e4:	80 e0       	ldi	r24, 0x00	; 0
     2e6:	0e 94 22 08 	call	0x1044	; 0x1044 <lcd_goto_xy>
        display_readings(sensors);
     2ea:	ce 01       	movw	r24, r28
     2ec:	01 96       	adiw	r24, 0x01	; 1
     2ee:	0e 94 9c 00 	call	0x138	; 0x138 <display_readings>
        
        delay_ms(100);
     2f2:	84 e6       	ldi	r24, 0x64	; 100
     2f4:	90 e0       	ldi	r25, 0x00	; 0
     2f6:	0e 94 66 09 	call	0x12cc	; 0x12cc <delay_ms>
        delay_ms(20);
    }
    set_motors(0,0);
    
    // Display calibrated values as a bar graph.
    while(!button_is_pressed(BUTTON_B))
     2fa:	80 e1       	ldi	r24, 0x10	; 16
     2fc:	0e 94 1b 09 	call	0x1236	; 0x1236 <button_is_pressed>
     300:	88 23       	and	r24, r24
     302:	11 f3       	breq	.-60     	; 0x2c8 <initialize+0x10a>
        lcd_goto_xy(0,1);
        display_readings(sensors);
        
        delay_ms(100);
    }
    wait_for_button_release(BUTTON_B);
     304:	80 e1       	ldi	r24, 0x10	; 16
     306:	0e 94 07 09 	call	0x120e	; 0x120e <wait_for_button_release>
    
    clear();
     30a:	0e 94 8a 07 	call	0xf14	; 0xf14 <clear>
    
    print("Go!");
     30e:	86 e4       	ldi	r24, 0x46	; 70
     310:	91 e0       	ldi	r25, 0x01	; 1
     312:	0e 94 99 07 	call	0xf32	; 0xf32 <print>
    
    // Play music and wait for it to finish before we start driving.
    play_from_program_space(go);
     316:	86 e7       	ldi	r24, 0x76	; 118
     318:	90 e0       	ldi	r25, 0x00	; 0
     31a:	0e 94 57 06 	call	0xcae	; 0xcae <play_from_program_space>
    while(is_playing());
     31e:	0e 94 46 06 	call	0xc8c	; 0xc8c <is_playing>
     322:	81 11       	cpse	r24, r1
     324:	fc cf       	rjmp	.-8      	; 0x31e <initialize+0x160>
}
     326:	2a 96       	adiw	r28, 0x0a	; 10
     328:	0f b6       	in	r0, 0x3f	; 63
     32a:	f8 94       	cli
     32c:	de bf       	out	0x3e, r29	; 62
     32e:	0f be       	out	0x3f, r0	; 63
     330:	cd bf       	out	0x3d, r28	; 61
     332:	df 91       	pop	r29
     334:	cf 91       	pop	r28
     336:	1f 91       	pop	r17
     338:	0f 91       	pop	r16
     33a:	08 95       	ret

0000033c <main>:

// This is the main function, where the code starts.  All C programs
// must have a main() function defined somewhere.
int main()
{
     33c:	cf 93       	push	r28
     33e:	df 93       	push	r29
     340:	cd b7       	in	r28, 0x3d	; 61
     342:	de b7       	in	r29, 0x3e	; 62
     344:	2a 97       	sbiw	r28, 0x0a	; 10
     346:	0f b6       	in	r0, 0x3f	; 63
     348:	f8 94       	cli
     34a:	de bf       	out	0x3e, r29	; 62
     34c:	0f be       	out	0x3f, r0	; 63
     34e:	cd bf       	out	0x3d, r28	; 61
	// unsigned int position = read_line(sensors,IR_EMITTERS_ON);
    unsigned int sensors[5]; // an array to hold sensor values
    //unsigned int position = read_line(sensors,IR_EMITTERS_ON);
    // set up the 3pi
    initialize();
     350:	0e 94 df 00 	call	0x1be	; 0x1be <initialize>
    // global speed variable
	int speed = 110;
	int stop =0;
     354:	00 e0       	ldi	r16, 0x00	; 0
     356:	10 e0       	ldi	r17, 0x00	; 0
    char arr[100];
	int index = 0;
    // This is the "main loop" - it will run forever.
    while(1)    {
        
        read_line(sensors,IR_EMITTERS_ON);
     358:	61 e0       	ldi	r22, 0x01	; 1
     35a:	ce 01       	movw	r24, r28
     35c:	01 96       	adiw	r24, 0x01	; 1
     35e:	0e 94 a8 09 	call	0x1350	; 0x1350 <read_line>
        // condition for u-turns
		if(sensors[1] < 100 && sensors[2] < 100 && sensors[3] < 100 && sensors[0] < 100 && sensors[4] < 100)
     362:	8b 81       	ldd	r24, Y+3	; 0x03
     364:	9c 81       	ldd	r25, Y+4	; 0x04
     366:	84 36       	cpi	r24, 0x64	; 100
     368:	91 05       	cpc	r25, r1
     36a:	50 f5       	brcc	.+84     	; 0x3c0 <main+0x84>
     36c:	8d 81       	ldd	r24, Y+5	; 0x05
     36e:	9e 81       	ldd	r25, Y+6	; 0x06
     370:	84 36       	cpi	r24, 0x64	; 100
     372:	91 05       	cpc	r25, r1
     374:	28 f5       	brcc	.+74     	; 0x3c0 <main+0x84>
     376:	8f 81       	ldd	r24, Y+7	; 0x07
     378:	98 85       	ldd	r25, Y+8	; 0x08
     37a:	84 36       	cpi	r24, 0x64	; 100
     37c:	91 05       	cpc	r25, r1
     37e:	00 f5       	brcc	.+64     	; 0x3c0 <main+0x84>
     380:	89 81       	ldd	r24, Y+1	; 0x01
     382:	9a 81       	ldd	r25, Y+2	; 0x02
     384:	84 36       	cpi	r24, 0x64	; 100
     386:	91 05       	cpc	r25, r1
     388:	d8 f4       	brcc	.+54     	; 0x3c0 <main+0x84>
     38a:	89 85       	ldd	r24, Y+9	; 0x09
     38c:	9a 85       	ldd	r25, Y+10	; 0x0a
     38e:	84 36       	cpi	r24, 0x64	; 100
     390:	91 05       	cpc	r25, r1
     392:	b0 f4       	brcc	.+44     	; 0x3c0 <main+0x84>
		{
			read_line(sensors,IR_EMITTERS_ON);
     394:	61 e0       	ldi	r22, 0x01	; 1
     396:	ce 01       	movw	r24, r28
     398:	01 96       	adiw	r24, 0x01	; 1
     39a:	0e 94 a8 09 	call	0x1350	; 0x1350 <read_line>
			set_motors(30,30);
     39e:	6e e1       	ldi	r22, 0x1E	; 30
     3a0:	70 e0       	ldi	r23, 0x00	; 0
     3a2:	8e e1       	ldi	r24, 0x1E	; 30
     3a4:	90 e0       	ldi	r25, 0x00	; 0
     3a6:	0e 94 d8 08 	call	0x11b0	; 0x11b0 <set_motors>
			//delay_ms(50);
			set_motors(-75,75);
     3aa:	6b e4       	ldi	r22, 0x4B	; 75
     3ac:	70 e0       	ldi	r23, 0x00	; 0
     3ae:	85 eb       	ldi	r24, 0xB5	; 181
     3b0:	9f ef       	ldi	r25, 0xFF	; 255
     3b2:	0e 94 d8 08 	call	0x11b0	; 0x11b0 <set_motors>
			delay_ms(100);
     3b6:	84 e6       	ldi	r24, 0x64	; 100
     3b8:	90 e0       	ldi	r25, 0x00	; 0
     3ba:	0e 94 66 09 	call	0x12cc	; 0x12cc <delay_ms>
			arr[index] = 'U';
     3be:	33 c0       	rjmp	.+102    	; 0x426 <__LOCK_REGION_LENGTH__+0x26>
			
		} 
        // test for intersection
		//left turn
		else if(sensors[0] > 900){
     3c0:	89 81       	ldd	r24, Y+1	; 0x01
     3c2:	9a 81       	ldd	r25, Y+2	; 0x02
     3c4:	85 38       	cpi	r24, 0x85	; 133
     3c6:	93 40       	sbci	r25, 0x03	; 3
     3c8:	70 f1       	brcs	.+92     	; 0x426 <__LOCK_REGION_LENGTH__+0x26>
			if(sensors[4] > 900){
     3ca:	89 85       	ldd	r24, Y+9	; 0x09
     3cc:	9a 85       	ldd	r25, Y+10	; 0x0a
     3ce:	85 38       	cpi	r24, 0x85	; 133
     3d0:	93 40       	sbci	r25, 0x03	; 3
     3d2:	a8 f0       	brcs	.+42     	; 0x3fe <main+0xc2>
				// move forward a little bit
				set_motors(40,40);
     3d4:	68 e2       	ldi	r22, 0x28	; 40
     3d6:	70 e0       	ldi	r23, 0x00	; 0
     3d8:	88 e2       	ldi	r24, 0x28	; 40
     3da:	90 e0       	ldi	r25, 0x00	; 0
     3dc:	0e 94 d8 08 	call	0x11b0	; 0x11b0 <set_motors>
				delay_ms(100);
     3e0:	84 e6       	ldi	r24, 0x64	; 100
     3e2:	90 e0       	ldi	r25, 0x00	; 0
     3e4:	0e 94 66 09 	call	0x12cc	; 0x12cc <delay_ms>
				// make a left turn
				set_motors(-80,80);
     3e8:	60 e5       	ldi	r22, 0x50	; 80
     3ea:	70 e0       	ldi	r23, 0x00	; 0
     3ec:	80 eb       	ldi	r24, 0xB0	; 176
     3ee:	9f ef       	ldi	r25, 0xFF	; 255
     3f0:	0e 94 d8 08 	call	0x11b0	; 0x11b0 <set_motors>
				delay_ms(150);
     3f4:	86 e9       	ldi	r24, 0x96	; 150
     3f6:	90 e0       	ldi	r25, 0x00	; 0
     3f8:	0e 94 66 09 	call	0x12cc	; 0x12cc <delay_ms>
     3fc:	14 c0       	rjmp	.+40     	; 0x426 <__LOCK_REGION_LENGTH__+0x26>
			}else{
			// move forward a little bit
			set_motors(40,40);
     3fe:	68 e2       	ldi	r22, 0x28	; 40
     400:	70 e0       	ldi	r23, 0x00	; 0
     402:	88 e2       	ldi	r24, 0x28	; 40
     404:	90 e0       	ldi	r25, 0x00	; 0
     406:	0e 94 d8 08 	call	0x11b0	; 0x11b0 <set_motors>
			delay_ms(100);
     40a:	84 e6       	ldi	r24, 0x64	; 100
     40c:	90 e0       	ldi	r25, 0x00	; 0
     40e:	0e 94 66 09 	call	0x12cc	; 0x12cc <delay_ms>
			// make a left turn
			set_motors(-80,80);
     412:	60 e5       	ldi	r22, 0x50	; 80
     414:	70 e0       	ldi	r23, 0x00	; 0
     416:	80 eb       	ldi	r24, 0xB0	; 176
     418:	9f ef       	ldi	r25, 0xFF	; 255
     41a:	0e 94 d8 08 	call	0x11b0	; 0x11b0 <set_motors>
			delay_ms(150);
     41e:	86 e9       	ldi	r24, 0x96	; 150
     420:	90 e0       	ldi	r25, 0x00	; 0
     422:	0e 94 66 09 	call	0x12cc	; 0x12cc <delay_ms>
			arr[index] = 'L';
		}
			index++;
		
		
		if((sensors[0] + sensors[1] + sensors[2] + sensors[3]+ sensors[4]) > 3000){
     426:	4b 81       	ldd	r20, Y+3	; 0x03
     428:	5c 81       	ldd	r21, Y+4	; 0x04
     42a:	6d 81       	ldd	r22, Y+5	; 0x05
     42c:	7e 81       	ldd	r23, Y+6	; 0x06
     42e:	2f 81       	ldd	r18, Y+7	; 0x07
     430:	38 85       	ldd	r19, Y+8	; 0x08
     432:	89 81       	ldd	r24, Y+1	; 0x01
     434:	9a 81       	ldd	r25, Y+2	; 0x02
     436:	84 0f       	add	r24, r20
     438:	95 1f       	adc	r25, r21
     43a:	86 0f       	add	r24, r22
     43c:	97 1f       	adc	r25, r23
     43e:	82 0f       	add	r24, r18
     440:	93 1f       	adc	r25, r19
     442:	e9 85       	ldd	r30, Y+9	; 0x09
     444:	fa 85       	ldd	r31, Y+10	; 0x0a
     446:	8e 0f       	add	r24, r30
     448:	9f 1f       	adc	r25, r31
     44a:	89 3b       	cpi	r24, 0xB9	; 185
     44c:	9b 40       	sbci	r25, 0x0B	; 11
     44e:	60 f0       	brcs	.+24     	; 0x468 <__LOCK_REGION_LENGTH__+0x68>
			stop++;
     450:	0f 5f       	subi	r16, 0xFF	; 255
     452:	1f 4f       	sbci	r17, 0xFF	; 255
			}else{
			stop =0;
		}
		
		if(stop > 55){
     454:	08 33       	cpi	r16, 0x38	; 56
     456:	11 05       	cpc	r17, r1
     458:	4c f0       	brlt	.+18     	; 0x46c <__LOCK_REGION_LENGTH__+0x6c>
			set_motors(0,0);
     45a:	60 e0       	ldi	r22, 0x00	; 0
     45c:	70 e0       	ldi	r23, 0x00	; 0
     45e:	80 e0       	ldi	r24, 0x00	; 0
     460:	90 e0       	ldi	r25, 0x00	; 0
     462:	0e 94 d8 08 	call	0x11b0	; 0x11b0 <set_motors>
		{
			set_motors(speed,0);
		}
		
	}
	while(!button_is_pressed(BUTTON_B)){
     466:	21 c0       	rjmp	.+66     	; 0x4aa <__LOCK_REGION_LENGTH__+0xaa>
		
		
		if((sensors[0] + sensors[1] + sensors[2] + sensors[3]+ sensors[4]) > 3000){
			stop++;
			}else{
			stop =0;
     468:	00 e0       	ldi	r16, 0x00	; 0
     46a:	10 e0       	ldi	r17, 0x00	; 0
		if(stop > 55){
			set_motors(0,0);
			break;
		}
        // line following code
		if(sensors[2] > 900)
     46c:	65 38       	cpi	r22, 0x85	; 133
     46e:	73 40       	sbci	r23, 0x03	; 3
     470:	38 f0       	brcs	.+14     	; 0x480 <__LOCK_REGION_LENGTH__+0x80>
		{
			set_motors(speed,speed);
     472:	6e e6       	ldi	r22, 0x6E	; 110
     474:	70 e0       	ldi	r23, 0x00	; 0
     476:	8e e6       	ldi	r24, 0x6E	; 110
     478:	90 e0       	ldi	r25, 0x00	; 0
     47a:	0e 94 d8 08 	call	0x11b0	; 0x11b0 <set_motors>
     47e:	6c cf       	rjmp	.-296    	; 0x358 <main+0x1c>
		}
        else if(sensors[1] > sensors[3])
     480:	24 17       	cp	r18, r20
     482:	35 07       	cpc	r19, r21
     484:	38 f4       	brcc	.+14     	; 0x494 <__LOCK_REGION_LENGTH__+0x94>
		{
			set_motors(0,speed);
     486:	6e e6       	ldi	r22, 0x6E	; 110
     488:	70 e0       	ldi	r23, 0x00	; 0
     48a:	80 e0       	ldi	r24, 0x00	; 0
     48c:	90 e0       	ldi	r25, 0x00	; 0
     48e:	0e 94 d8 08 	call	0x11b0	; 0x11b0 <set_motors>
     492:	62 cf       	rjmp	.-316    	; 0x358 <main+0x1c>
		}
		else if(sensors[3] > sensors[1])
     494:	42 17       	cp	r20, r18
     496:	53 07       	cpc	r21, r19
     498:	08 f0       	brcs	.+2      	; 0x49c <__LOCK_REGION_LENGTH__+0x9c>
     49a:	5e cf       	rjmp	.-324    	; 0x358 <main+0x1c>
		{
			set_motors(speed,0);
     49c:	60 e0       	ldi	r22, 0x00	; 0
     49e:	70 e0       	ldi	r23, 0x00	; 0
     4a0:	8e e6       	ldi	r24, 0x6E	; 110
     4a2:	90 e0       	ldi	r25, 0x00	; 0
     4a4:	0e 94 d8 08 	call	0x11b0	; 0x11b0 <set_motors>
     4a8:	57 cf       	rjmp	.-338    	; 0x358 <main+0x1c>
		}
		
	}
	while(!button_is_pressed(BUTTON_B)){
     4aa:	80 e1       	ldi	r24, 0x10	; 16
     4ac:	0e 94 1b 09 	call	0x1236	; 0x1236 <button_is_pressed>
     4b0:	88 23       	and	r24, r24
     4b2:	d9 f3       	breq	.-10     	; 0x4aa <__LOCK_REGION_LENGTH__+0xaa>
     4b4:	ff cf       	rjmp	.-2      	; 0x4b4 <__LOCK_REGION_LENGTH__+0xb4>

000004b6 <_ZN15OrangutanAnalog7setModeEh.part.0>:
     4b6:	ec e7       	ldi	r30, 0x7C	; 124
     4b8:	f0 e0       	ldi	r31, 0x00	; 0
     4ba:	80 81       	ld	r24, Z
     4bc:	8f 7d       	andi	r24, 0xDF	; 223
     4be:	80 83       	st	Z, r24
     4c0:	08 95       	ret

000004c2 <_ZN15OrangutanAnalog7setModeEh>:
     4c2:	81 11       	cpse	r24, r1
     4c4:	03 c0       	rjmp	.+6      	; 0x4cc <_ZN15OrangutanAnalog7setModeEh+0xa>
     4c6:	0e 94 5b 02 	call	0x4b6	; 0x4b6 <_ZN15OrangutanAnalog7setModeEh.part.0>
     4ca:	08 95       	ret
     4cc:	80 91 7c 00 	lds	r24, 0x007C	; 0x80007c <__TEXT_REGION_LENGTH__+0x7e007c>
     4d0:	80 62       	ori	r24, 0x20	; 32
     4d2:	80 93 7c 00 	sts	0x007C, r24	; 0x80007c <__TEXT_REGION_LENGTH__+0x7e007c>
     4d6:	08 95       	ret

000004d8 <_ZN15OrangutanAnalog7getModeEv>:
     4d8:	80 91 7c 00 	lds	r24, 0x007C	; 0x80007c <__TEXT_REGION_LENGTH__+0x7e007c>
     4dc:	85 fb       	bst	r24, 5
     4de:	88 27       	eor	r24, r24
     4e0:	80 f9       	bld	r24, 0
     4e2:	08 95       	ret

000004e4 <_ZN15OrangutanAnalog16conversionResultEv>:
     4e4:	0e 94 6c 02 	call	0x4d8	; 0x4d8 <_ZN15OrangutanAnalog7getModeEv>
     4e8:	88 23       	and	r24, r24
     4ea:	21 f0       	breq	.+8      	; 0x4f4 <_ZN15OrangutanAnalog16conversionResultEv+0x10>
     4ec:	80 91 79 00 	lds	r24, 0x0079	; 0x800079 <__TEXT_REGION_LENGTH__+0x7e0079>
     4f0:	90 e0       	ldi	r25, 0x00	; 0
     4f2:	08 95       	ret
     4f4:	80 91 78 00 	lds	r24, 0x0078	; 0x800078 <__TEXT_REGION_LENGTH__+0x7e0078>
     4f8:	90 91 79 00 	lds	r25, 0x0079	; 0x800079 <__TEXT_REGION_LENGTH__+0x7e0079>
     4fc:	08 95       	ret

000004fe <_ZN15OrangutanAnalog15startConversionEhh>:
     4fe:	80 32       	cpi	r24, 0x20	; 32
     500:	a0 f4       	brcc	.+40     	; 0x52a <_ZN15OrangutanAnalog15startConversionEhh+0x2c>
     502:	97 e8       	ldi	r25, 0x87	; 135
     504:	90 93 7a 00 	sts	0x007A, r25	; 0x80007a <__TEXT_REGION_LENGTH__+0x7e007a>
     508:	90 91 7c 00 	lds	r25, 0x007C	; 0x80007c <__TEXT_REGION_LENGTH__+0x7e007c>
     50c:	66 23       	and	r22, r22
     50e:	11 f0       	breq	.+4      	; 0x514 <_ZN15OrangutanAnalog15startConversionEhh+0x16>
     510:	90 6c       	ori	r25, 0xC0	; 192
     512:	02 c0       	rjmp	.+4      	; 0x518 <_ZN15OrangutanAnalog15startConversionEhh+0x1a>
     514:	9f 77       	andi	r25, 0x7F	; 127
     516:	90 64       	ori	r25, 0x40	; 64
     518:	90 7e       	andi	r25, 0xE0	; 224
     51a:	98 2b       	or	r25, r24
     51c:	90 93 7c 00 	sts	0x007C, r25	; 0x80007c <__TEXT_REGION_LENGTH__+0x7e007c>
     520:	80 91 7a 00 	lds	r24, 0x007A	; 0x80007a <__TEXT_REGION_LENGTH__+0x7e007a>
     524:	80 64       	ori	r24, 0x40	; 64
     526:	80 93 7a 00 	sts	0x007A, r24	; 0x80007a <__TEXT_REGION_LENGTH__+0x7e007a>
     52a:	08 95       	ret

0000052c <_ZN15OrangutanAnalog11readAverageEhj>:
     52c:	a0 e0       	ldi	r26, 0x00	; 0
     52e:	b0 e0       	ldi	r27, 0x00	; 0
     530:	ec e9       	ldi	r30, 0x9C	; 156
     532:	f2 e0       	ldi	r31, 0x02	; 2
     534:	0c 94 7b 0f 	jmp	0x1ef6	; 0x1ef6 <__prologue_saves__+0x14>
     538:	eb 01       	movw	r28, r22
     53a:	60 e0       	ldi	r22, 0x00	; 0
     53c:	0e 94 7f 02 	call	0x4fe	; 0x4fe <_ZN15OrangutanAnalog15startConversionEhh>
     540:	80 91 7a 00 	lds	r24, 0x007A	; 0x80007a <__TEXT_REGION_LENGTH__+0x7e007a>
     544:	86 fd       	sbrc	r24, 6
     546:	fc cf       	rjmp	.-8      	; 0x540 <_ZN15OrangutanAnalog11readAverageEhj+0x14>
     548:	8e 01       	movw	r16, r28
     54a:	c1 2c       	mov	r12, r1
     54c:	d1 2c       	mov	r13, r1
     54e:	76 01       	movw	r14, r12
     550:	80 91 7a 00 	lds	r24, 0x007A	; 0x80007a <__TEXT_REGION_LENGTH__+0x7e007a>
     554:	80 64       	ori	r24, 0x40	; 64
     556:	80 93 7a 00 	sts	0x007A, r24	; 0x80007a <__TEXT_REGION_LENGTH__+0x7e007a>
     55a:	80 91 7a 00 	lds	r24, 0x007A	; 0x80007a <__TEXT_REGION_LENGTH__+0x7e007a>
     55e:	86 fd       	sbrc	r24, 6
     560:	fc cf       	rjmp	.-8      	; 0x55a <_ZN15OrangutanAnalog11readAverageEhj+0x2e>
     562:	0e 94 72 02 	call	0x4e4	; 0x4e4 <_ZN15OrangutanAnalog16conversionResultEv>
     566:	c8 0e       	add	r12, r24
     568:	d9 1e       	adc	r13, r25
     56a:	e1 1c       	adc	r14, r1
     56c:	f1 1c       	adc	r15, r1
     56e:	01 50       	subi	r16, 0x01	; 1
     570:	11 09       	sbc	r17, r1
     572:	01 15       	cp	r16, r1
     574:	11 05       	cpc	r17, r1
     576:	61 f7       	brne	.-40     	; 0x550 <_ZN15OrangutanAnalog11readAverageEhj+0x24>
     578:	ce 01       	movw	r24, r28
     57a:	96 95       	lsr	r25
     57c:	87 95       	ror	r24
     57e:	c0 34       	cpi	r28, 0x40	; 64
     580:	d1 05       	cpc	r29, r1
     582:	38 f4       	brcc	.+14     	; 0x592 <_ZN15OrangutanAnalog11readAverageEhj+0x66>
     584:	8c 0d       	add	r24, r12
     586:	9d 1d       	adc	r25, r13
     588:	be 01       	movw	r22, r28
     58a:	0e 94 fa 0e 	call	0x1df4	; 0x1df4 <__udivmodhi4>
     58e:	cb 01       	movw	r24, r22
     590:	0e c0       	rjmp	.+28     	; 0x5ae <_ZN15OrangutanAnalog11readAverageEhj+0x82>
     592:	a7 01       	movw	r20, r14
     594:	96 01       	movw	r18, r12
     596:	28 0f       	add	r18, r24
     598:	39 1f       	adc	r19, r25
     59a:	41 1d       	adc	r20, r1
     59c:	51 1d       	adc	r21, r1
     59e:	ca 01       	movw	r24, r20
     5a0:	b9 01       	movw	r22, r18
     5a2:	9e 01       	movw	r18, r28
     5a4:	40 e0       	ldi	r20, 0x00	; 0
     5a6:	50 e0       	ldi	r21, 0x00	; 0
     5a8:	0e 94 0e 0f 	call	0x1e1c	; 0x1e1c <__udivmodsi4>
     5ac:	c9 01       	movw	r24, r18
     5ae:	cd b7       	in	r28, 0x3d	; 61
     5b0:	de b7       	in	r29, 0x3e	; 62
     5b2:	e8 e0       	ldi	r30, 0x08	; 8
     5b4:	0c 94 97 0f 	jmp	0x1f2e	; 0x1f2e <__epilogue_restores__+0x14>

000005b8 <_ZN15OrangutanAnalog12toMillivoltsEj>:
     5b8:	cf 92       	push	r12
     5ba:	df 92       	push	r13
     5bc:	ef 92       	push	r14
     5be:	ff 92       	push	r15
     5c0:	a0 91 00 01 	lds	r26, 0x0100	; 0x800100 <__data_start>
     5c4:	b0 91 01 01 	lds	r27, 0x0101	; 0x800101 <__data_start+0x1>
     5c8:	9c 01       	movw	r18, r24
     5ca:	0e 94 4f 0f 	call	0x1e9e	; 0x1e9e <__umulhisi3>
     5ce:	6b 01       	movw	r12, r22
     5d0:	7c 01       	movw	r14, r24
     5d2:	0e 94 6c 02 	call	0x4d8	; 0x4d8 <_ZN15OrangutanAnalog7getModeEv>
     5d6:	88 23       	and	r24, r24
     5d8:	59 f0       	breq	.+22     	; 0x5f0 <_ZN15OrangutanAnalog12toMillivoltsEj+0x38>
     5da:	c7 01       	movw	r24, r14
     5dc:	b6 01       	movw	r22, r12
     5de:	61 58       	subi	r22, 0x81	; 129
     5e0:	7f 4f       	sbci	r23, 0xFF	; 255
     5e2:	8f 4f       	sbci	r24, 0xFF	; 255
     5e4:	9f 4f       	sbci	r25, 0xFF	; 255
     5e6:	2f ef       	ldi	r18, 0xFF	; 255
     5e8:	30 e0       	ldi	r19, 0x00	; 0
     5ea:	40 e0       	ldi	r20, 0x00	; 0
     5ec:	50 e0       	ldi	r21, 0x00	; 0
     5ee:	0a c0       	rjmp	.+20     	; 0x604 <_ZN15OrangutanAnalog12toMillivoltsEj+0x4c>
     5f0:	c7 01       	movw	r24, r14
     5f2:	b6 01       	movw	r22, r12
     5f4:	61 50       	subi	r22, 0x01	; 1
     5f6:	7e 4f       	sbci	r23, 0xFE	; 254
     5f8:	8f 4f       	sbci	r24, 0xFF	; 255
     5fa:	9f 4f       	sbci	r25, 0xFF	; 255
     5fc:	2f ef       	ldi	r18, 0xFF	; 255
     5fe:	33 e0       	ldi	r19, 0x03	; 3
     600:	40 e0       	ldi	r20, 0x00	; 0
     602:	50 e0       	ldi	r21, 0x00	; 0
     604:	0e 94 0e 0f 	call	0x1e1c	; 0x1e1c <__udivmodsi4>
     608:	c9 01       	movw	r24, r18
     60a:	ff 90       	pop	r15
     60c:	ef 90       	pop	r14
     60e:	df 90       	pop	r13
     610:	cf 90       	pop	r12
     612:	08 95       	ret

00000614 <_ZN15OrangutanAnalog21readAverageMillivoltsEhj>:
     614:	0e 94 96 02 	call	0x52c	; 0x52c <_ZN15OrangutanAnalog11readAverageEhj>
     618:	0e 94 dc 02 	call	0x5b8	; 0x5b8 <_ZN15OrangutanAnalog12toMillivoltsEj>
     61c:	08 95       	ret

0000061e <_ZN15OrangutanAnalog25readBatteryMillivolts_3piEv>:
     61e:	1f 93       	push	r17
     620:	cf 93       	push	r28
     622:	df 93       	push	r29
     624:	0e 94 6c 02 	call	0x4d8	; 0x4d8 <_ZN15OrangutanAnalog7getModeEv>
     628:	18 2f       	mov	r17, r24
     62a:	0e 94 5b 02 	call	0x4b6	; 0x4b6 <_ZN15OrangutanAnalog7setModeEh.part.0>
     62e:	6a e0       	ldi	r22, 0x0A	; 10
     630:	70 e0       	ldi	r23, 0x00	; 0
     632:	86 e0       	ldi	r24, 0x06	; 6
     634:	0e 94 0a 03 	call	0x614	; 0x614 <_ZN15OrangutanAnalog21readAverageMillivoltsEhj>
     638:	ec 01       	movw	r28, r24
     63a:	81 2f       	mov	r24, r17
     63c:	0e 94 61 02 	call	0x4c2	; 0x4c2 <_ZN15OrangutanAnalog7setModeEh>
     640:	ce 01       	movw	r24, r28
     642:	88 0f       	add	r24, r24
     644:	99 1f       	adc	r25, r25
     646:	8c 0f       	add	r24, r28
     648:	9d 1f       	adc	r25, r29
     64a:	01 96       	adiw	r24, 0x01	; 1
     64c:	96 95       	lsr	r25
     64e:	87 95       	ror	r24
     650:	df 91       	pop	r29
     652:	cf 91       	pop	r28
     654:	1f 91       	pop	r17
     656:	08 95       	ret

00000658 <read_battery_millivolts_3pi>:
     658:	0e 94 0f 03 	call	0x61e	; 0x61e <_ZN15OrangutanAnalog25readBatteryMillivolts_3piEv>
     65c:	08 95       	ret

0000065e <_ZL16currentCharacterv>:
     65e:	90 91 4f 01 	lds	r25, 0x014F	; 0x80014f <_ZL17use_program_space>
     662:	e0 91 4a 01 	lds	r30, 0x014A	; 0x80014a <__data_end>
     666:	f0 91 4b 01 	lds	r31, 0x014B	; 0x80014b <__data_end+0x1>
     66a:	99 23       	and	r25, r25
     66c:	11 f0       	breq	.+4      	; 0x672 <_ZL16currentCharacterv+0x14>
     66e:	84 91       	lpm	r24, Z
     670:	01 c0       	rjmp	.+2      	; 0x674 <_ZL16currentCharacterv+0x16>
     672:	80 81       	ld	r24, Z
     674:	2f eb       	ldi	r18, 0xBF	; 191
     676:	28 0f       	add	r18, r24
     678:	2a 31       	cpi	r18, 0x1A	; 26
     67a:	10 f4       	brcc	.+4      	; 0x680 <_ZL16currentCharacterv+0x22>
     67c:	80 5e       	subi	r24, 0xE0	; 224
     67e:	08 95       	ret
     680:	80 32       	cpi	r24, 0x20	; 32
     682:	49 f4       	brne	.+18     	; 0x696 <_ZL16currentCharacterv+0x38>
     684:	9f 01       	movw	r18, r30
     686:	2f 5f       	subi	r18, 0xFF	; 255
     688:	3f 4f       	sbci	r19, 0xFF	; 255
     68a:	30 93 4b 01 	sts	0x014B, r19	; 0x80014b <__data_end+0x1>
     68e:	20 93 4a 01 	sts	0x014A, r18	; 0x80014a <__data_end>
     692:	ef 2b       	or	r30, r31
     694:	31 f7       	brne	.-52     	; 0x662 <_ZL16currentCharacterv+0x4>
     696:	08 95       	ret

00000698 <_ZL9getNumberv>:
     698:	1f 93       	push	r17
     69a:	cf 93       	push	r28
     69c:	df 93       	push	r29
     69e:	0e 94 2f 03 	call	0x65e	; 0x65e <_ZL16currentCharacterv>
     6a2:	c0 e0       	ldi	r28, 0x00	; 0
     6a4:	d0 e0       	ldi	r29, 0x00	; 0
     6a6:	1a e0       	ldi	r17, 0x0A	; 10
     6a8:	90 ed       	ldi	r25, 0xD0	; 208
     6aa:	98 0f       	add	r25, r24
     6ac:	9a 30       	cpi	r25, 0x0A	; 10
     6ae:	b8 f4       	brcc	.+46     	; 0x6de <_ZL9getNumberv+0x46>
     6b0:	9e 01       	movw	r18, r28
     6b2:	12 9f       	mul	r17, r18
     6b4:	e0 01       	movw	r28, r0
     6b6:	13 9f       	mul	r17, r19
     6b8:	d0 0d       	add	r29, r0
     6ba:	11 24       	eor	r1, r1
     6bc:	c8 0f       	add	r28, r24
     6be:	d1 1d       	adc	r29, r1
     6c0:	87 fd       	sbrc	r24, 7
     6c2:	da 95       	dec	r29
     6c4:	e0 97       	sbiw	r28, 0x30	; 48
     6c6:	80 91 4a 01 	lds	r24, 0x014A	; 0x80014a <__data_end>
     6ca:	90 91 4b 01 	lds	r25, 0x014B	; 0x80014b <__data_end+0x1>
     6ce:	01 96       	adiw	r24, 0x01	; 1
     6d0:	90 93 4b 01 	sts	0x014B, r25	; 0x80014b <__data_end+0x1>
     6d4:	80 93 4a 01 	sts	0x014A, r24	; 0x80014a <__data_end>
     6d8:	0e 94 2f 03 	call	0x65e	; 0x65e <_ZL16currentCharacterv>
     6dc:	e5 cf       	rjmp	.-54     	; 0x6a8 <_ZL9getNumberv+0x10>
     6de:	ce 01       	movw	r24, r28
     6e0:	df 91       	pop	r29
     6e2:	cf 91       	pop	r28
     6e4:	1f 91       	pop	r17
     6e6:	08 95       	ret

000006e8 <_ZN15OrangutanBuzzer5init2Ev>:
     6e8:	10 92 6f 00 	sts	0x006F, r1	; 0x80006f <__TEXT_REGION_LENGTH__+0x7e006f>
     6ec:	83 e2       	ldi	r24, 0x23	; 35
     6ee:	80 93 80 00 	sts	0x0080, r24	; 0x800080 <__TEXT_REGION_LENGTH__+0x7e0080>
     6f2:	81 e1       	ldi	r24, 0x11	; 17
     6f4:	80 93 81 00 	sts	0x0081, r24	; 0x800081 <__TEXT_REGION_LENGTH__+0x7e0081>
     6f8:	10 92 82 00 	sts	0x0082, r1	; 0x800082 <__TEXT_REGION_LENGTH__+0x7e0082>
     6fc:	80 e1       	ldi	r24, 0x10	; 16
     6fe:	97 e2       	ldi	r25, 0x27	; 39
     700:	90 93 89 00 	sts	0x0089, r25	; 0x800089 <__TEXT_REGION_LENGTH__+0x7e0089>
     704:	80 93 88 00 	sts	0x0088, r24	; 0x800088 <__TEXT_REGION_LENGTH__+0x7e0088>
     708:	10 92 8b 00 	sts	0x008B, r1	; 0x80008b <__TEXT_REGION_LENGTH__+0x7e008b>
     70c:	10 92 8a 00 	sts	0x008A, r1	; 0x80008a <__TEXT_REGION_LENGTH__+0x7e008a>
     710:	22 9a       	sbi	0x04, 2	; 4
     712:	78 94       	sei
     714:	08 95       	ret

00000716 <_ZN15OrangutanBuzzer13playFrequencyEjjh>:
     716:	8f 92       	push	r8
     718:	9f 92       	push	r9
     71a:	af 92       	push	r10
     71c:	bf 92       	push	r11
     71e:	df 92       	push	r13
     720:	ef 92       	push	r14
     722:	ff 92       	push	r15
     724:	0f 93       	push	r16
     726:	1f 93       	push	r17
     728:	cf 93       	push	r28
     72a:	df 93       	push	r29
     72c:	5c 01       	movw	r10, r24
     72e:	8b 01       	movw	r16, r22
     730:	d4 2e       	mov	r13, r20
     732:	80 91 4c 01 	lds	r24, 0x014C	; 0x80014c <buzzerInitialized>
     736:	81 11       	cpse	r24, r1
     738:	05 c0       	rjmp	.+10     	; 0x744 <_ZN15OrangutanBuzzer13playFrequencyEjjh+0x2e>
     73a:	81 e0       	ldi	r24, 0x01	; 1
     73c:	80 93 4c 01 	sts	0x014C, r24	; 0x80014c <buzzerInitialized>
     740:	0e 94 74 03 	call	0x6e8	; 0x6e8 <_ZN15OrangutanBuzzer5init2Ev>
     744:	10 92 0b 01 	sts	0x010B, r1	; 0x80010b <buzzerFinished>
     748:	b7 fe       	sbrs	r11, 7
     74a:	05 c0       	rjmp	.+10     	; 0x756 <_ZN15OrangutanBuzzer13playFrequencyEjjh+0x40>
     74c:	e8 94       	clt
     74e:	b7 f8       	bld	r11, 7
     750:	2a e0       	ldi	r18, 0x0A	; 10
     752:	f2 2e       	mov	r15, r18
     754:	02 c0       	rjmp	.+4      	; 0x75a <_ZN15OrangutanBuzzer13playFrequencyEjjh+0x44>
     756:	ff 24       	eor	r15, r15
     758:	f3 94       	inc	r15
     75a:	e0 90 81 00 	lds	r14, 0x0081	; 0x800081 <__TEXT_REGION_LENGTH__+0x7e0081>
     75e:	2e 2d       	mov	r18, r14
     760:	28 7f       	andi	r18, 0xF8	; 248
     762:	e2 2e       	mov	r14, r18
     764:	48 ec       	ldi	r20, 0xC8	; 200
     766:	f4 9e       	mul	r15, r20
     768:	c0 01       	movw	r24, r0
     76a:	11 24       	eor	r1, r1
     76c:	8a 15       	cp	r24, r10
     76e:	9b 05       	cpc	r25, r11
     770:	e0 f4       	brcc	.+56     	; 0x7aa <_ZN15OrangutanBuzzer13playFrequencyEjjh+0x94>
     772:	e5 01       	movw	r28, r10
     774:	51 e1       	ldi	r21, 0x11	; 17
     776:	a5 16       	cp	r10, r21
     778:	57 e2       	ldi	r21, 0x27	; 39
     77a:	b5 06       	cpc	r11, r21
     77c:	10 f0       	brcs	.+4      	; 0x782 <_ZN15OrangutanBuzzer13playFrequencyEjjh+0x6c>
     77e:	c0 e1       	ldi	r28, 0x10	; 16
     780:	d7 e2       	ldi	r29, 0x27	; 39
     782:	be 01       	movw	r22, r28
     784:	76 95       	lsr	r23
     786:	67 95       	ror	r22
     788:	80 e0       	ldi	r24, 0x00	; 0
     78a:	90 e0       	ldi	r25, 0x00	; 0
     78c:	60 58       	subi	r22, 0x80	; 128
     78e:	79 46       	sbci	r23, 0x69	; 105
     790:	87 46       	sbci	r24, 0x67	; 103
     792:	9f 4f       	sbci	r25, 0xFF	; 255
     794:	4e 01       	movw	r8, r28
     796:	a1 2c       	mov	r10, r1
     798:	b1 2c       	mov	r11, r1
     79a:	a5 01       	movw	r20, r10
     79c:	94 01       	movw	r18, r8
     79e:	0e 94 0e 0f 	call	0x1e1c	; 0x1e1c <__udivmodsi4>
     7a2:	59 01       	movw	r10, r18
     7a4:	8e 2d       	mov	r24, r14
     7a6:	81 60       	ori	r24, 0x01	; 1
     7a8:	24 c0       	rjmp	.+72     	; 0x7f2 <_ZN15OrangutanBuzzer13playFrequencyEjjh+0xdc>
     7aa:	c8 e2       	ldi	r28, 0x28	; 40
     7ac:	fc 9e       	mul	r15, r28
     7ae:	c0 2d       	mov	r28, r0
     7b0:	11 24       	eor	r1, r1
     7b2:	d0 e0       	ldi	r29, 0x00	; 0
     7b4:	ca 15       	cp	r28, r10
     7b6:	db 05       	cpc	r29, r11
     7b8:	08 f4       	brcc	.+2      	; 0x7bc <_ZN15OrangutanBuzzer13playFrequencyEjjh+0xa6>
     7ba:	e5 01       	movw	r28, r10
     7bc:	be 01       	movw	r22, r28
     7be:	76 95       	lsr	r23
     7c0:	67 95       	ror	r22
     7c2:	9e 01       	movw	r18, r28
     7c4:	40 e0       	ldi	r20, 0x00	; 0
     7c6:	50 e0       	ldi	r21, 0x00	; 0
     7c8:	8a e0       	ldi	r24, 0x0A	; 10
     7ca:	f8 12       	cpse	r15, r24
     7cc:	07 c0       	rjmp	.+14     	; 0x7dc <_ZN15OrangutanBuzzer13playFrequencyEjjh+0xc6>
     7ce:	80 e0       	ldi	r24, 0x00	; 0
     7d0:	90 e0       	ldi	r25, 0x00	; 0
     7d2:	60 5e       	subi	r22, 0xE0	; 224
     7d4:	73 44       	sbci	r23, 0x43	; 67
     7d6:	81 44       	sbci	r24, 0x41	; 65
     7d8:	9f 4f       	sbci	r25, 0xFF	; 255
     7da:	06 c0       	rjmp	.+12     	; 0x7e8 <_ZN15OrangutanBuzzer13playFrequencyEjjh+0xd2>
     7dc:	80 e0       	ldi	r24, 0x00	; 0
     7de:	90 e0       	ldi	r25, 0x00	; 0
     7e0:	60 53       	subi	r22, 0x30	; 48
     7e2:	7d 4e       	sbci	r23, 0xED	; 237
     7e4:	8c 4e       	sbci	r24, 0xEC	; 236
     7e6:	9f 4f       	sbci	r25, 0xFF	; 255
     7e8:	0e 94 0e 0f 	call	0x1e1c	; 0x1e1c <__udivmodsi4>
     7ec:	59 01       	movw	r10, r18
     7ee:	8e 2d       	mov	r24, r14
     7f0:	82 60       	ori	r24, 0x02	; 2
     7f2:	88 2e       	mov	r8, r24
     7f4:	2a e0       	ldi	r18, 0x0A	; 10
     7f6:	f2 12       	cpse	r15, r18
     7f8:	07 c0       	rjmp	.+14     	; 0x808 <_ZN15OrangutanBuzzer13playFrequencyEjjh+0xf2>
     7fa:	ce 01       	movw	r24, r28
     7fc:	05 96       	adiw	r24, 0x05	; 5
     7fe:	6a e0       	ldi	r22, 0x0A	; 10
     800:	70 e0       	ldi	r23, 0x00	; 0
     802:	0e 94 fa 0e 	call	0x1df4	; 0x1df4 <__udivmodhi4>
     806:	eb 01       	movw	r28, r22
     808:	c8 3e       	cpi	r28, 0xE8	; 232
     80a:	43 e0       	ldi	r20, 0x03	; 3
     80c:	d4 07       	cpc	r29, r20
     80e:	59 f0       	breq	.+22     	; 0x826 <_ZN15OrangutanBuzzer13playFrequencyEjjh+0x110>
     810:	98 01       	movw	r18, r16
     812:	de 01       	movw	r26, r28
     814:	0e 94 4f 0f 	call	0x1e9e	; 0x1e9e <__umulhisi3>
     818:	28 ee       	ldi	r18, 0xE8	; 232
     81a:	33 e0       	ldi	r19, 0x03	; 3
     81c:	40 e0       	ldi	r20, 0x00	; 0
     81e:	50 e0       	ldi	r21, 0x00	; 0
     820:	0e 94 30 0f 	call	0x1e60	; 0x1e60 <__divmodsi4>
     824:	89 01       	movw	r16, r18
     826:	10 92 6f 00 	sts	0x006F, r1	; 0x80006f <__TEXT_REGION_LENGTH__+0x7e006f>
     82a:	80 92 81 00 	sts	0x0081, r8	; 0x800081 <__TEXT_REGION_LENGTH__+0x7e0081>
     82e:	b0 92 89 00 	sts	0x0089, r11	; 0x800089 <__TEXT_REGION_LENGTH__+0x7e0089>
     832:	a0 92 88 00 	sts	0x0088, r10	; 0x800088 <__TEXT_REGION_LENGTH__+0x7e0088>
     836:	20 91 88 00 	lds	r18, 0x0088	; 0x800088 <__TEXT_REGION_LENGTH__+0x7e0088>
     83a:	30 91 89 00 	lds	r19, 0x0089	; 0x800089 <__TEXT_REGION_LENGTH__+0x7e0089>
     83e:	4d 2d       	mov	r20, r13
     840:	40 31       	cpi	r20, 0x10	; 16
     842:	08 f0       	brcs	.+2      	; 0x846 <_ZN15OrangutanBuzzer13playFrequencyEjjh+0x130>
     844:	4f e0       	ldi	r20, 0x0F	; 15
     846:	80 e1       	ldi	r24, 0x10	; 16
     848:	90 e0       	ldi	r25, 0x00	; 0
     84a:	84 1b       	sub	r24, r20
     84c:	91 09       	sbc	r25, r1
     84e:	a9 01       	movw	r20, r18
     850:	02 c0       	rjmp	.+4      	; 0x856 <_ZN15OrangutanBuzzer13playFrequencyEjjh+0x140>
     852:	56 95       	lsr	r21
     854:	47 95       	ror	r20
     856:	8a 95       	dec	r24
     858:	e2 f7       	brpl	.-8      	; 0x852 <_ZN15OrangutanBuzzer13playFrequencyEjjh+0x13c>
     85a:	50 93 8b 00 	sts	0x008B, r21	; 0x80008b <__TEXT_REGION_LENGTH__+0x7e008b>
     85e:	40 93 8a 00 	sts	0x008A, r20	; 0x80008a <__TEXT_REGION_LENGTH__+0x7e008a>
     862:	10 93 52 01 	sts	0x0152, r17	; 0x800152 <_ZL13buzzerTimeout+0x1>
     866:	00 93 51 01 	sts	0x0151, r16	; 0x800151 <_ZL13buzzerTimeout>
     86a:	86 b3       	in	r24, 0x16	; 22
     86c:	8f ef       	ldi	r24, 0xFF	; 255
     86e:	86 bb       	out	0x16, r24	; 22
     870:	81 e0       	ldi	r24, 0x01	; 1
     872:	80 93 6f 00 	sts	0x006F, r24	; 0x80006f <__TEXT_REGION_LENGTH__+0x7e006f>
     876:	df 91       	pop	r29
     878:	cf 91       	pop	r28
     87a:	1f 91       	pop	r17
     87c:	0f 91       	pop	r16
     87e:	ff 90       	pop	r15
     880:	ef 90       	pop	r14
     882:	df 90       	pop	r13
     884:	bf 90       	pop	r11
     886:	af 90       	pop	r10
     888:	9f 90       	pop	r9
     88a:	8f 90       	pop	r8
     88c:	08 95       	ret

0000088e <_ZN15OrangutanBuzzer8playNoteEhjh>:
     88e:	cf 93       	push	r28
     890:	df 93       	push	r29
     892:	eb 01       	movw	r28, r22
     894:	8f 3f       	cpi	r24, 0xFF	; 255
     896:	11 f0       	breq	.+4      	; 0x89c <_ZN15OrangutanBuzzer8playNoteEhjh+0xe>
     898:	41 11       	cpse	r20, r1
     89a:	05 c0       	rjmp	.+10     	; 0x8a6 <_ZN15OrangutanBuzzer8playNoteEhjh+0x18>
     89c:	40 e0       	ldi	r20, 0x00	; 0
     89e:	be 01       	movw	r22, r28
     8a0:	88 ee       	ldi	r24, 0xE8	; 232
     8a2:	93 e0       	ldi	r25, 0x03	; 3
     8a4:	43 c0       	rjmp	.+134    	; 0x92c <__stack+0x2d>
     8a6:	81 31       	cpi	r24, 0x11	; 17
     8a8:	30 f0       	brcs	.+12     	; 0x8b6 <_ZN15OrangutanBuzzer8playNoteEhjh+0x28>
     8aa:	50 ef       	ldi	r21, 0xF0	; 240
     8ac:	58 0f       	add	r21, r24
     8ae:	50 36       	cpi	r21, 0x60	; 96
     8b0:	18 f0       	brcs	.+6      	; 0x8b8 <_ZN15OrangutanBuzzer8playNoteEhjh+0x2a>
     8b2:	5f e5       	ldi	r21, 0x5F	; 95
     8b4:	01 c0       	rjmp	.+2      	; 0x8b8 <_ZN15OrangutanBuzzer8playNoteEhjh+0x2a>
     8b6:	50 e0       	ldi	r21, 0x00	; 0
     8b8:	85 2f       	mov	r24, r21
     8ba:	6c e0       	ldi	r22, 0x0C	; 12
     8bc:	0e 94 ee 0e 	call	0x1ddc	; 0x1ddc <__udivmodqi4>
     8c0:	68 2f       	mov	r22, r24
     8c2:	74 ef       	ldi	r23, 0xF4	; 244
     8c4:	76 03       	mulsu	r23, r22
     8c6:	90 01       	movw	r18, r0
     8c8:	11 24       	eor	r1, r1
     8ca:	25 0f       	add	r18, r21
     8cc:	31 1d       	adc	r19, r1
     8ce:	2c 30       	cpi	r18, 0x0C	; 12
     8d0:	31 05       	cpc	r19, r1
     8d2:	40 f4       	brcc	.+16     	; 0x8e4 <_ZN15OrangutanBuzzer8playNoteEhjh+0x56>
     8d4:	f9 01       	movw	r30, r18
     8d6:	ee 0f       	add	r30, r30
     8d8:	ff 1f       	adc	r31, r31
     8da:	e2 5e       	subi	r30, 0xE2	; 226
     8dc:	fe 4f       	sbci	r31, 0xFE	; 254
     8de:	20 81       	ld	r18, Z
     8e0:	31 81       	ldd	r19, Z+1	; 0x01
     8e2:	02 c0       	rjmp	.+4      	; 0x8e8 <_ZN15OrangutanBuzzer8playNoteEhjh+0x5a>
     8e4:	20 e0       	ldi	r18, 0x00	; 0
     8e6:	30 e0       	ldi	r19, 0x00	; 0
     8e8:	87 30       	cpi	r24, 0x07	; 7
     8ea:	81 f0       	breq	.+32     	; 0x90c <__stack+0xd>
     8ec:	08 2e       	mov	r0, r24
     8ee:	02 c0       	rjmp	.+4      	; 0x8f4 <_ZN15OrangutanBuzzer8playNoteEhjh+0x66>
     8f0:	22 0f       	add	r18, r18
     8f2:	33 1f       	adc	r19, r19
     8f4:	0a 94       	dec	r0
     8f6:	e2 f7       	brpl	.-8      	; 0x8f0 <_ZN15OrangutanBuzzer8playNoteEhjh+0x62>
     8f8:	82 30       	cpi	r24, 0x02	; 2
     8fa:	28 f0       	brcs	.+10     	; 0x906 <__stack+0x7>
     8fc:	c9 01       	movw	r24, r18
     8fe:	05 96       	adiw	r24, 0x05	; 5
     900:	6a e0       	ldi	r22, 0x0A	; 10
     902:	70 e0       	ldi	r23, 0x00	; 0
     904:	0c c0       	rjmp	.+24     	; 0x91e <__stack+0x1f>
     906:	c9 01       	movw	r24, r18
     908:	90 58       	subi	r25, 0x80	; 128
     90a:	0c c0       	rjmp	.+24     	; 0x924 <__stack+0x25>
     90c:	c9 01       	movw	r24, r18
     90e:	36 e0       	ldi	r19, 0x06	; 6
     910:	88 0f       	add	r24, r24
     912:	99 1f       	adc	r25, r25
     914:	3a 95       	dec	r19
     916:	e1 f7       	brne	.-8      	; 0x910 <__stack+0x11>
     918:	02 96       	adiw	r24, 0x02	; 2
     91a:	65 e0       	ldi	r22, 0x05	; 5
     91c:	70 e0       	ldi	r23, 0x00	; 0
     91e:	0e 94 fa 0e 	call	0x1df4	; 0x1df4 <__udivmodhi4>
     922:	cb 01       	movw	r24, r22
     924:	40 31       	cpi	r20, 0x10	; 16
     926:	08 f0       	brcs	.+2      	; 0x92a <__stack+0x2b>
     928:	4f e0       	ldi	r20, 0x0F	; 15
     92a:	be 01       	movw	r22, r28
     92c:	0e 94 8b 03 	call	0x716	; 0x716 <_ZN15OrangutanBuzzer13playFrequencyEjjh>
     930:	df 91       	pop	r29
     932:	cf 91       	pop	r28
     934:	08 95       	ret

00000936 <_ZL8nextNotev>:
     936:	a2 e0       	ldi	r26, 0x02	; 2
     938:	b0 e0       	ldi	r27, 0x00	; 0
     93a:	e1 ea       	ldi	r30, 0xA1	; 161
     93c:	f4 e0       	ldi	r31, 0x04	; 4
     93e:	0c 94 73 0f 	jmp	0x1ee6	; 0x1ee6 <__prologue_saves__+0x4>
     942:	90 90 0a 01 	lds	r9, 0x010A	; 0x80010a <_ZL6octave>
     946:	80 91 4e 01 	lds	r24, 0x014E	; 0x80014e <_ZL8staccato>
     94a:	88 23       	and	r24, r24
     94c:	21 f0       	breq	.+8      	; 0x956 <_ZL8nextNotev+0x20>
     94e:	60 91 4d 01 	lds	r22, 0x014D	; 0x80014d <_ZL22staccato_rest_duration>
     952:	61 11       	cpse	r22, r1
     954:	17 c0       	rjmp	.+46     	; 0x984 <_ZL8nextNotev+0x4e>
     956:	77 24       	eor	r7, r7
     958:	73 94       	inc	r7
     95a:	b0 ec       	ldi	r27, 0xC0	; 192
     95c:	ab 2e       	mov	r10, r27
     95e:	bd e5       	ldi	r27, 0x5D	; 93
     960:	bb 2e       	mov	r11, r27
     962:	1a e0       	ldi	r17, 0x0A	; 10
     964:	61 2e       	mov	r6, r17
     966:	04 e0       	ldi	r16, 0x04	; 4
     968:	80 2e       	mov	r8, r16
     96a:	80 ed       	ldi	r24, 0xD0	; 208
     96c:	c8 2e       	mov	r12, r24
     96e:	87 e0       	ldi	r24, 0x07	; 7
     970:	d8 2e       	mov	r13, r24
     972:	94 e0       	ldi	r25, 0x04	; 4
     974:	e9 2e       	mov	r14, r25
     976:	f1 2c       	mov	r15, r1
     978:	04 ef       	ldi	r16, 0xF4	; 244
     97a:	11 e0       	ldi	r17, 0x01	; 1
     97c:	2f e0       	ldi	r18, 0x0F	; 15
     97e:	42 2e       	mov	r4, r18
     980:	51 2c       	mov	r5, r1
     982:	15 c0       	rjmp	.+42     	; 0x9ae <_ZL8nextNotev+0x78>
     984:	70 e0       	ldi	r23, 0x00	; 0
     986:	40 e0       	ldi	r20, 0x00	; 0
     988:	88 ee       	ldi	r24, 0xE8	; 232
     98a:	93 e0       	ldi	r25, 0x03	; 3
     98c:	0e 94 8b 03 	call	0x716	; 0x716 <_ZN15OrangutanBuzzer13playFrequencyEjjh>
     990:	10 92 4d 01 	sts	0x014D, r1	; 0x80014d <_ZL22staccato_rest_duration>
     994:	17 c1       	rjmp	.+558    	; 0xbc4 <_ZL8nextNotev+0x28e>
     996:	86 36       	cpi	r24, 0x66	; 102
     998:	d4 f5       	brge	.+116    	; 0xa0e <_ZL8nextNotev+0xd8>
     99a:	81 36       	cpi	r24, 0x61	; 97
     99c:	09 f4       	brne	.+2      	; 0x9a0 <_ZL8nextNotev+0x6a>
     99e:	a9 c0       	rjmp	.+338    	; 0xaf2 <_ZL8nextNotev+0x1bc>
     9a0:	7c f5       	brge	.+94     	; 0xa00 <_ZL8nextNotev+0xca>
     9a2:	8c 33       	cpi	r24, 0x3C	; 60
     9a4:	09 f4       	brne	.+2      	; 0x9a8 <_ZL8nextNotev+0x72>
     9a6:	60 c0       	rjmp	.+192    	; 0xa68 <_ZL8nextNotev+0x132>
     9a8:	8e 33       	cpi	r24, 0x3E	; 62
     9aa:	81 f4       	brne	.+32     	; 0x9cc <_ZL8nextNotev+0x96>
     9ac:	93 94       	inc	r9
     9ae:	0e 94 2f 03 	call	0x65e	; 0x65e <_ZL16currentCharacterv>
     9b2:	20 91 4a 01 	lds	r18, 0x014A	; 0x80014a <__data_end>
     9b6:	30 91 4b 01 	lds	r19, 0x014B	; 0x80014b <__data_end+0x1>
     9ba:	2f 5f       	subi	r18, 0xFF	; 255
     9bc:	3f 4f       	sbci	r19, 0xFF	; 255
     9be:	30 93 4b 01 	sts	0x014B, r19	; 0x80014b <__data_end+0x1>
     9c2:	20 93 4a 01 	sts	0x014A, r18	; 0x80014a <__data_end>
     9c6:	85 36       	cpi	r24, 0x65	; 101
     9c8:	31 f7       	brne	.-52     	; 0x996 <_ZL8nextNotev+0x60>
     9ca:	52 c0       	rjmp	.+164    	; 0xa70 <_ZL8nextNotev+0x13a>
     9cc:	81 32       	cpi	r24, 0x21	; 33
     9ce:	09 f0       	breq	.+2      	; 0x9d2 <_ZL8nextNotev+0x9c>
     9d0:	8b c0       	rjmp	.+278    	; 0xae8 <_ZL8nextNotev+0x1b2>
     9d2:	80 92 0a 01 	sts	0x010A, r8	; 0x80010a <_ZL6octave>
     9d6:	d0 92 09 01 	sts	0x0109, r13	; 0x800109 <_ZL19whole_note_duration+0x1>
     9da:	c0 92 08 01 	sts	0x0108, r12	; 0x800108 <_ZL19whole_note_duration>
     9de:	f0 92 07 01 	sts	0x0107, r15	; 0x800107 <_ZL9note_type+0x1>
     9e2:	e0 92 06 01 	sts	0x0106, r14	; 0x800106 <_ZL9note_type>
     9e6:	10 93 05 01 	sts	0x0105, r17	; 0x800105 <_ZL8duration+0x1>
     9ea:	00 93 04 01 	sts	0x0104, r16	; 0x800104 <_ZL8duration>
     9ee:	50 92 03 01 	sts	0x0103, r5	; 0x800103 <_ZL6volume+0x1>
     9f2:	40 92 02 01 	sts	0x0102, r4	; 0x800102 <_ZL6volume>
     9f6:	10 92 4e 01 	sts	0x014E, r1	; 0x80014e <_ZL8staccato>
     9fa:	a4 e0       	ldi	r26, 0x04	; 4
     9fc:	9a 2e       	mov	r9, r26
     9fe:	d7 cf       	rjmp	.-82     	; 0x9ae <_ZL8nextNotev+0x78>
     a00:	83 36       	cpi	r24, 0x63	; 99
     a02:	a1 f1       	breq	.+104    	; 0xa6c <_ZL8nextNotev+0x136>
     a04:	0c f4       	brge	.+2      	; 0xa08 <_ZL8nextNotev+0xd2>
     a06:	78 c0       	rjmp	.+240    	; 0xaf8 <_ZL8nextNotev+0x1c2>
     a08:	10 e0       	ldi	r17, 0x00	; 0
     a0a:	82 e0       	ldi	r24, 0x02	; 2
     a0c:	77 c0       	rjmp	.+238    	; 0xafc <_ZL8nextNotev+0x1c6>
     a0e:	8d 36       	cpi	r24, 0x6D	; 109
     a10:	c1 f1       	breq	.+112    	; 0xa82 <_ZL8nextNotev+0x14c>
     a12:	94 f4       	brge	.+36     	; 0xa38 <_ZL8nextNotev+0x102>
     a14:	87 36       	cpi	r24, 0x67	; 103
     a16:	91 f1       	breq	.+100    	; 0xa7c <_ZL8nextNotev+0x146>
     a18:	74 f1       	brlt	.+92     	; 0xa76 <_ZL8nextNotev+0x140>
     a1a:	8c 36       	cpi	r24, 0x6C	; 108
     a1c:	09 f0       	breq	.+2      	; 0xa20 <_ZL8nextNotev+0xea>
     a1e:	64 c0       	rjmp	.+200    	; 0xae8 <_ZL8nextNotev+0x1b2>
     a20:	0e 94 4c 03 	call	0x698	; 0x698 <_ZL9getNumberv>
     a24:	bc 01       	movw	r22, r24
     a26:	90 93 07 01 	sts	0x0107, r25	; 0x800107 <_ZL9note_type+0x1>
     a2a:	80 93 06 01 	sts	0x0106, r24	; 0x800106 <_ZL9note_type>
     a2e:	80 91 08 01 	lds	r24, 0x0108	; 0x800108 <_ZL19whole_note_duration>
     a32:	90 91 09 01 	lds	r25, 0x0109	; 0x800109 <_ZL19whole_note_duration+0x1>
     a36:	51 c0       	rjmp	.+162    	; 0xada <_ZL8nextNotev+0x1a4>
     a38:	82 37       	cpi	r24, 0x72	; 114
     a3a:	c9 f1       	breq	.+114    	; 0xaae <_ZL8nextNotev+0x178>
     a3c:	4c f4       	brge	.+18     	; 0xa50 <_ZL8nextNotev+0x11a>
     a3e:	8f 36       	cpi	r24, 0x6F	; 111
     a40:	09 f0       	breq	.+2      	; 0xa44 <_ZL8nextNotev+0x10e>
     a42:	52 c0       	rjmp	.+164    	; 0xae8 <_ZL8nextNotev+0x1b2>
     a44:	0e 94 4c 03 	call	0x698	; 0x698 <_ZL9getNumberv>
     a48:	98 2e       	mov	r9, r24
     a4a:	80 93 0a 01 	sts	0x010A, r24	; 0x80010a <_ZL6octave>
     a4e:	af cf       	rjmp	.-162    	; 0x9ae <_ZL8nextNotev+0x78>
     a50:	84 37       	cpi	r24, 0x74	; 116
     a52:	81 f1       	breq	.+96     	; 0xab4 <_ZL8nextNotev+0x17e>
     a54:	86 37       	cpi	r24, 0x76	; 118
     a56:	09 f0       	breq	.+2      	; 0xa5a <_ZL8nextNotev+0x124>
     a58:	47 c0       	rjmp	.+142    	; 0xae8 <_ZL8nextNotev+0x1b2>
     a5a:	0e 94 4c 03 	call	0x698	; 0x698 <_ZL9getNumberv>
     a5e:	90 93 03 01 	sts	0x0103, r25	; 0x800103 <_ZL6volume+0x1>
     a62:	80 93 02 01 	sts	0x0102, r24	; 0x800102 <_ZL6volume>
     a66:	a3 cf       	rjmp	.-186    	; 0x9ae <_ZL8nextNotev+0x78>
     a68:	9a 94       	dec	r9
     a6a:	a1 cf       	rjmp	.-190    	; 0x9ae <_ZL8nextNotev+0x78>
     a6c:	10 e0       	ldi	r17, 0x00	; 0
     a6e:	20 c0       	rjmp	.+64     	; 0xab0 <_ZL8nextNotev+0x17a>
     a70:	10 e0       	ldi	r17, 0x00	; 0
     a72:	84 e0       	ldi	r24, 0x04	; 4
     a74:	43 c0       	rjmp	.+134    	; 0xafc <_ZL8nextNotev+0x1c6>
     a76:	10 e0       	ldi	r17, 0x00	; 0
     a78:	85 e0       	ldi	r24, 0x05	; 5
     a7a:	40 c0       	rjmp	.+128    	; 0xafc <_ZL8nextNotev+0x1c6>
     a7c:	10 e0       	ldi	r17, 0x00	; 0
     a7e:	87 e0       	ldi	r24, 0x07	; 7
     a80:	3d c0       	rjmp	.+122    	; 0xafc <_ZL8nextNotev+0x1c6>
     a82:	0e 94 2f 03 	call	0x65e	; 0x65e <_ZL16currentCharacterv>
     a86:	8c 36       	cpi	r24, 0x6C	; 108
     a88:	19 f4       	brne	.+6      	; 0xa90 <_ZL8nextNotev+0x15a>
     a8a:	10 92 4e 01 	sts	0x014E, r1	; 0x80014e <_ZL8staccato>
     a8e:	04 c0       	rjmp	.+8      	; 0xa98 <_ZL8nextNotev+0x162>
     a90:	70 92 4e 01 	sts	0x014E, r7	; 0x80014e <_ZL8staccato>
     a94:	10 92 4d 01 	sts	0x014D, r1	; 0x80014d <_ZL22staccato_rest_duration>
     a98:	20 91 4a 01 	lds	r18, 0x014A	; 0x80014a <__data_end>
     a9c:	30 91 4b 01 	lds	r19, 0x014B	; 0x80014b <__data_end+0x1>
     aa0:	2f 5f       	subi	r18, 0xFF	; 255
     aa2:	3f 4f       	sbci	r19, 0xFF	; 255
     aa4:	30 93 4b 01 	sts	0x014B, r19	; 0x80014b <__data_end+0x1>
     aa8:	20 93 4a 01 	sts	0x014A, r18	; 0x80014a <__data_end>
     aac:	80 cf       	rjmp	.-256    	; 0x9ae <_ZL8nextNotev+0x78>
     aae:	11 e0       	ldi	r17, 0x01	; 1
     ab0:	80 e0       	ldi	r24, 0x00	; 0
     ab2:	24 c0       	rjmp	.+72     	; 0xafc <_ZL8nextNotev+0x1c6>
     ab4:	0e 94 4c 03 	call	0x698	; 0x698 <_ZL9getNumberv>
     ab8:	bc 01       	movw	r22, r24
     aba:	c5 01       	movw	r24, r10
     abc:	0e 94 fa 0e 	call	0x1df4	; 0x1df4 <__udivmodhi4>
     ac0:	66 9e       	mul	r6, r22
     ac2:	c0 01       	movw	r24, r0
     ac4:	67 9e       	mul	r6, r23
     ac6:	90 0d       	add	r25, r0
     ac8:	11 24       	eor	r1, r1
     aca:	90 93 09 01 	sts	0x0109, r25	; 0x800109 <_ZL19whole_note_duration+0x1>
     ace:	80 93 08 01 	sts	0x0108, r24	; 0x800108 <_ZL19whole_note_duration>
     ad2:	60 91 06 01 	lds	r22, 0x0106	; 0x800106 <_ZL9note_type>
     ad6:	70 91 07 01 	lds	r23, 0x0107	; 0x800107 <_ZL9note_type+0x1>
     ada:	0e 94 fa 0e 	call	0x1df4	; 0x1df4 <__udivmodhi4>
     ade:	70 93 05 01 	sts	0x0105, r23	; 0x800105 <_ZL8duration+0x1>
     ae2:	60 93 04 01 	sts	0x0104, r22	; 0x800104 <_ZL8duration>
     ae6:	63 cf       	rjmp	.-314    	; 0x9ae <_ZL8nextNotev+0x78>
     ae8:	10 92 4b 01 	sts	0x014B, r1	; 0x80014b <__data_end+0x1>
     aec:	10 92 4a 01 	sts	0x014A, r1	; 0x80014a <__data_end>
     af0:	69 c0       	rjmp	.+210    	; 0xbc4 <_ZL8nextNotev+0x28e>
     af2:	10 e0       	ldi	r17, 0x00	; 0
     af4:	89 e0       	ldi	r24, 0x09	; 9
     af6:	02 c0       	rjmp	.+4      	; 0xafc <_ZL8nextNotev+0x1c6>
     af8:	10 e0       	ldi	r17, 0x00	; 0
     afa:	8b e0       	ldi	r24, 0x0B	; 11
     afc:	08 2f       	mov	r16, r24
     afe:	9c e0       	ldi	r25, 0x0C	; 12
     b00:	99 9e       	mul	r9, r25
     b02:	00 0d       	add	r16, r0
     b04:	11 24       	eor	r1, r1
     b06:	0e 94 2f 03 	call	0x65e	; 0x65e <_ZL16currentCharacterv>
     b0a:	98 2f       	mov	r25, r24
     b0c:	97 7f       	andi	r25, 0xF7	; 247
     b0e:	93 32       	cpi	r25, 0x23	; 35
     b10:	61 f4       	brne	.+24     	; 0xb2a <_ZL8nextNotev+0x1f4>
     b12:	20 91 4a 01 	lds	r18, 0x014A	; 0x80014a <__data_end>
     b16:	30 91 4b 01 	lds	r19, 0x014B	; 0x80014b <__data_end+0x1>
     b1a:	2f 5f       	subi	r18, 0xFF	; 255
     b1c:	3f 4f       	sbci	r19, 0xFF	; 255
     b1e:	30 93 4b 01 	sts	0x014B, r19	; 0x80014b <__data_end+0x1>
     b22:	20 93 4a 01 	sts	0x014A, r18	; 0x80014a <__data_end>
     b26:	0f 5f       	subi	r16, 0xFF	; 255
     b28:	ee cf       	rjmp	.-36     	; 0xb06 <_ZL8nextNotev+0x1d0>
     b2a:	8d 32       	cpi	r24, 0x2D	; 45
     b2c:	71 f4       	brne	.+28     	; 0xb4a <_ZL8nextNotev+0x214>
     b2e:	20 91 4a 01 	lds	r18, 0x014A	; 0x80014a <__data_end>
     b32:	30 91 4b 01 	lds	r19, 0x014B	; 0x80014b <__data_end+0x1>
     b36:	2f 5f       	subi	r18, 0xFF	; 255
     b38:	3f 4f       	sbci	r19, 0xFF	; 255
     b3a:	30 93 4b 01 	sts	0x014B, r19	; 0x80014b <__data_end+0x1>
     b3e:	20 93 4a 01 	sts	0x014A, r18	; 0x80014a <__data_end>
     b42:	01 50       	subi	r16, 0x01	; 1
     b44:	0e 94 2f 03 	call	0x65e	; 0x65e <_ZL16currentCharacterv>
     b48:	f0 cf       	rjmp	.-32     	; 0xb2a <_ZL8nextNotev+0x1f4>
     b4a:	60 91 04 01 	lds	r22, 0x0104	; 0x800104 <_ZL8duration>
     b4e:	70 91 05 01 	lds	r23, 0x0105	; 0x800105 <_ZL8duration+0x1>
     b52:	81 53       	subi	r24, 0x31	; 49
     b54:	88 30       	cpi	r24, 0x08	; 8
     b56:	50 f4       	brcc	.+20     	; 0xb6c <_ZL8nextNotev+0x236>
     b58:	e0 90 08 01 	lds	r14, 0x0108	; 0x800108 <_ZL19whole_note_duration>
     b5c:	f0 90 09 01 	lds	r15, 0x0109	; 0x800109 <_ZL19whole_note_duration+0x1>
     b60:	0e 94 4c 03 	call	0x698	; 0x698 <_ZL9getNumberv>
     b64:	bc 01       	movw	r22, r24
     b66:	c7 01       	movw	r24, r14
     b68:	0e 94 fa 0e 	call	0x1df4	; 0x1df4 <__udivmodhi4>
     b6c:	7b 01       	movw	r14, r22
     b6e:	f6 94       	lsr	r15
     b70:	e7 94       	ror	r14
     b72:	69 83       	std	Y+1, r22	; 0x01
     b74:	7a 83       	std	Y+2, r23	; 0x02
     b76:	0e 94 2f 03 	call	0x65e	; 0x65e <_ZL16currentCharacterv>
     b7a:	69 81       	ldd	r22, Y+1	; 0x01
     b7c:	7a 81       	ldd	r23, Y+2	; 0x02
     b7e:	8e 32       	cpi	r24, 0x2E	; 46
     b80:	69 f4       	brne	.+26     	; 0xb9c <_ZL8nextNotev+0x266>
     b82:	20 91 4a 01 	lds	r18, 0x014A	; 0x80014a <__data_end>
     b86:	30 91 4b 01 	lds	r19, 0x014B	; 0x80014b <__data_end+0x1>
     b8a:	2f 5f       	subi	r18, 0xFF	; 255
     b8c:	3f 4f       	sbci	r19, 0xFF	; 255
     b8e:	30 93 4b 01 	sts	0x014B, r19	; 0x80014b <__data_end+0x1>
     b92:	20 93 4a 01 	sts	0x014A, r18	; 0x80014a <__data_end>
     b96:	6e 0d       	add	r22, r14
     b98:	7f 1d       	adc	r23, r15
     b9a:	e9 cf       	rjmp	.-46     	; 0xb6e <_ZL8nextNotev+0x238>
     b9c:	80 91 4e 01 	lds	r24, 0x014E	; 0x80014e <_ZL8staccato>
     ba0:	88 23       	and	r24, r24
     ba2:	39 f0       	breq	.+14     	; 0xbb2 <_ZL8nextNotev+0x27c>
     ba4:	9b 01       	movw	r18, r22
     ba6:	36 95       	lsr	r19
     ba8:	27 95       	ror	r18
     baa:	20 93 4d 01 	sts	0x014D, r18	; 0x80014d <_ZL22staccato_rest_duration>
     bae:	62 1b       	sub	r22, r18
     bb0:	71 09       	sbc	r23, r1
     bb2:	40 91 02 01 	lds	r20, 0x0102	; 0x800102 <_ZL6volume>
     bb6:	11 23       	and	r17, r17
     bb8:	11 f0       	breq	.+4      	; 0xbbe <_ZL8nextNotev+0x288>
     bba:	8f ef       	ldi	r24, 0xFF	; 255
     bbc:	01 c0       	rjmp	.+2      	; 0xbc0 <_ZL8nextNotev+0x28a>
     bbe:	80 2f       	mov	r24, r16
     bc0:	0e 94 47 04 	call	0x88e	; 0x88e <_ZN15OrangutanBuzzer8playNoteEhjh>
     bc4:	22 96       	adiw	r28, 0x02	; 2
     bc6:	e0 e1       	ldi	r30, 0x10	; 16
     bc8:	0c 94 8f 0f 	jmp	0x1f1e	; 0x1f1e <__epilogue_restores__+0x4>

00000bcc <__vector_13>:
     bcc:	1f 92       	push	r1
     bce:	0f 92       	push	r0
     bd0:	0f b6       	in	r0, 0x3f	; 63
     bd2:	0f 92       	push	r0
     bd4:	11 24       	eor	r1, r1
     bd6:	2f 93       	push	r18
     bd8:	3f 93       	push	r19
     bda:	4f 93       	push	r20
     bdc:	5f 93       	push	r21
     bde:	6f 93       	push	r22
     be0:	7f 93       	push	r23
     be2:	8f 93       	push	r24
     be4:	9f 93       	push	r25
     be6:	af 93       	push	r26
     be8:	bf 93       	push	r27
     bea:	ef 93       	push	r30
     bec:	ff 93       	push	r31
     bee:	80 91 51 01 	lds	r24, 0x0151	; 0x800151 <_ZL13buzzerTimeout>
     bf2:	90 91 52 01 	lds	r25, 0x0152	; 0x800152 <_ZL13buzzerTimeout+0x1>
     bf6:	9c 01       	movw	r18, r24
     bf8:	21 50       	subi	r18, 0x01	; 1
     bfa:	31 09       	sbc	r19, r1
     bfc:	30 93 52 01 	sts	0x0152, r19	; 0x800152 <_ZL13buzzerTimeout+0x1>
     c00:	20 93 51 01 	sts	0x0151, r18	; 0x800151 <_ZL13buzzerTimeout>
     c04:	89 2b       	or	r24, r25
     c06:	11 f5       	brne	.+68     	; 0xc4c <__vector_13+0x80>
     c08:	10 92 6f 00 	sts	0x006F, r1	; 0x80006f <__TEXT_REGION_LENGTH__+0x7e006f>
     c0c:	78 94       	sei
     c0e:	80 91 81 00 	lds	r24, 0x0081	; 0x800081 <__TEXT_REGION_LENGTH__+0x7e0081>
     c12:	88 7f       	andi	r24, 0xF8	; 248
     c14:	81 60       	ori	r24, 0x01	; 1
     c16:	80 93 81 00 	sts	0x0081, r24	; 0x800081 <__TEXT_REGION_LENGTH__+0x7e0081>
     c1a:	80 e1       	ldi	r24, 0x10	; 16
     c1c:	97 e2       	ldi	r25, 0x27	; 39
     c1e:	90 93 89 00 	sts	0x0089, r25	; 0x800089 <__TEXT_REGION_LENGTH__+0x7e0089>
     c22:	80 93 88 00 	sts	0x0088, r24	; 0x800088 <__TEXT_REGION_LENGTH__+0x7e0088>
     c26:	10 92 8b 00 	sts	0x008B, r1	; 0x80008b <__TEXT_REGION_LENGTH__+0x7e008b>
     c2a:	10 92 8a 00 	sts	0x008A, r1	; 0x80008a <__TEXT_REGION_LENGTH__+0x7e008a>
     c2e:	81 e0       	ldi	r24, 0x01	; 1
     c30:	80 93 0b 01 	sts	0x010B, r24	; 0x80010b <buzzerFinished>
     c34:	80 91 4a 01 	lds	r24, 0x014A	; 0x80014a <__data_end>
     c38:	90 91 4b 01 	lds	r25, 0x014B	; 0x80014b <__data_end+0x1>
     c3c:	89 2b       	or	r24, r25
     c3e:	31 f0       	breq	.+12     	; 0xc4c <__vector_13+0x80>
     c40:	80 91 50 01 	lds	r24, 0x0150	; 0x800150 <_ZL17play_mode_setting>
     c44:	81 11       	cpse	r24, r1
     c46:	02 c0       	rjmp	.+4      	; 0xc4c <__vector_13+0x80>
     c48:	0e 94 9b 04 	call	0x936	; 0x936 <_ZL8nextNotev>
     c4c:	ff 91       	pop	r31
     c4e:	ef 91       	pop	r30
     c50:	bf 91       	pop	r27
     c52:	af 91       	pop	r26
     c54:	9f 91       	pop	r25
     c56:	8f 91       	pop	r24
     c58:	7f 91       	pop	r23
     c5a:	6f 91       	pop	r22
     c5c:	5f 91       	pop	r21
     c5e:	4f 91       	pop	r20
     c60:	3f 91       	pop	r19
     c62:	2f 91       	pop	r18
     c64:	0f 90       	pop	r0
     c66:	0f be       	out	0x3f, r0	; 63
     c68:	0f 90       	pop	r0
     c6a:	1f 90       	pop	r1
     c6c:	18 95       	reti

00000c6e <_ZN15OrangutanBuzzer9isPlayingEv>:
     c6e:	80 91 0b 01 	lds	r24, 0x010B	; 0x80010b <buzzerFinished>
     c72:	88 23       	and	r24, r24
     c74:	49 f0       	breq	.+18     	; 0xc88 <_ZN15OrangutanBuzzer9isPlayingEv+0x1a>
     c76:	81 e0       	ldi	r24, 0x01	; 1
     c78:	20 91 4a 01 	lds	r18, 0x014A	; 0x80014a <__data_end>
     c7c:	30 91 4b 01 	lds	r19, 0x014B	; 0x80014b <__data_end+0x1>
     c80:	23 2b       	or	r18, r19
     c82:	19 f4       	brne	.+6      	; 0xc8a <_ZN15OrangutanBuzzer9isPlayingEv+0x1c>
     c84:	80 e0       	ldi	r24, 0x00	; 0
     c86:	08 95       	ret
     c88:	81 e0       	ldi	r24, 0x01	; 1
     c8a:	08 95       	ret

00000c8c <is_playing>:
     c8c:	0e 94 37 06 	call	0xc6e	; 0xc6e <_ZN15OrangutanBuzzer9isPlayingEv>
     c90:	08 95       	ret

00000c92 <_ZN15OrangutanBuzzer20playFromProgramSpaceEPKc>:
     c92:	10 92 6f 00 	sts	0x006F, r1	; 0x80006f <__TEXT_REGION_LENGTH__+0x7e006f>
     c96:	90 93 4b 01 	sts	0x014B, r25	; 0x80014b <__data_end+0x1>
     c9a:	80 93 4a 01 	sts	0x014A, r24	; 0x80014a <__data_end>
     c9e:	81 e0       	ldi	r24, 0x01	; 1
     ca0:	80 93 4f 01 	sts	0x014F, r24	; 0x80014f <_ZL17use_program_space>
     ca4:	10 92 4d 01 	sts	0x014D, r1	; 0x80014d <_ZL22staccato_rest_duration>
     ca8:	0e 94 9b 04 	call	0x936	; 0x936 <_ZL8nextNotev>
     cac:	08 95       	ret

00000cae <play_from_program_space>:
     cae:	0e 94 49 06 	call	0xc92	; 0xc92 <_ZN15OrangutanBuzzer20playFromProgramSpaceEPKc>
     cb2:	08 95       	ret

00000cb4 <delay_us.constprop.0>:
     cb4:	81 e0       	ldi	r24, 0x01	; 1
     cb6:	90 e0       	ldi	r25, 0x00	; 0
     cb8:	6f 93       	push	r22
     cba:	64 e0       	ldi	r22, 0x04	; 4
     cbc:	6a 95       	dec	r22
     cbe:	f1 f7       	brne	.-4      	; 0xcbc <delay_us.constprop.0+0x8>
     cc0:	6f 91       	pop	r22
     cc2:	01 97       	sbiw	r24, 0x01	; 1
     cc4:	c9 f7       	brne	.-14     	; 0xcb8 <delay_us.constprop.0+0x4>
     cc6:	08 95       	ret

00000cc8 <_ZN12OrangutanLCD8busyWaitEv>:
     cc8:	0f 93       	push	r16
     cca:	1f 93       	push	r17
     ccc:	cf 93       	push	r28
     cce:	df 93       	push	r29
     cd0:	1a b1       	in	r17, 0x0a	; 10
     cd2:	57 98       	cbi	0x0a, 7	; 10
     cd4:	5a 98       	cbi	0x0b, 2	; 11
     cd6:	28 9a       	sbi	0x05, 0	; 5
     cd8:	c0 e0       	ldi	r28, 0x00	; 0
     cda:	d0 e0       	ldi	r29, 0x00	; 0
     cdc:	0e 94 5a 06 	call	0xcb4	; 0xcb4 <delay_us.constprop.0>
     ce0:	5c 9a       	sbi	0x0b, 4	; 11
     ce2:	0e 94 5a 06 	call	0xcb4	; 0xcb4 <delay_us.constprop.0>
     ce6:	09 b1       	in	r16, 0x09	; 9
     ce8:	5c 98       	cbi	0x0b, 4	; 11
     cea:	0e 94 5a 06 	call	0xcb4	; 0xcb4 <delay_us.constprop.0>
     cee:	5c 9a       	sbi	0x0b, 4	; 11
     cf0:	0e 94 5a 06 	call	0xcb4	; 0xcb4 <delay_us.constprop.0>
     cf4:	5c 98       	cbi	0x0b, 4	; 11
     cf6:	24 96       	adiw	r28, 0x04	; 4
     cf8:	07 ff       	sbrs	r16, 7
     cfa:	10 c0       	rjmp	.+32     	; 0xd1c <_ZN12OrangutanLCD8busyWaitEv+0x54>
     cfc:	ae 01       	movw	r20, r28
     cfe:	60 e0       	ldi	r22, 0x00	; 0
     d00:	70 e0       	ldi	r23, 0x00	; 0
     d02:	80 91 53 01 	lds	r24, 0x0153	; 0x800153 <lcdTimeout>
     d06:	90 91 54 01 	lds	r25, 0x0154	; 0x800154 <lcdTimeout+0x1>
     d0a:	a0 91 55 01 	lds	r26, 0x0155	; 0x800155 <lcdTimeout+0x2>
     d0e:	b0 91 56 01 	lds	r27, 0x0156	; 0x800156 <lcdTimeout+0x3>
     d12:	48 17       	cp	r20, r24
     d14:	59 07       	cpc	r21, r25
     d16:	6a 07       	cpc	r22, r26
     d18:	7b 07       	cpc	r23, r27
     d1a:	00 f3       	brcs	.-64     	; 0xcdc <_ZN12OrangutanLCD8busyWaitEv+0x14>
     d1c:	1a b9       	out	0x0a, r17	; 10
     d1e:	df 91       	pop	r29
     d20:	cf 91       	pop	r28
     d22:	1f 91       	pop	r17
     d24:	0f 91       	pop	r16
     d26:	08 95       	ret

00000d28 <_ZN12OrangutanLCD8sendDataEh>:
     d28:	95 b1       	in	r25, 0x05	; 5
     d2a:	28 2f       	mov	r18, r24
     d2c:	21 70       	andi	r18, 0x01	; 1
     d2e:	30 e0       	ldi	r19, 0x00	; 0
     d30:	22 0f       	add	r18, r18
     d32:	33 1f       	adc	r19, r19
     d34:	48 2f       	mov	r20, r24
     d36:	46 70       	andi	r20, 0x06	; 6
     d38:	68 e0       	ldi	r22, 0x08	; 8
     d3a:	46 9f       	mul	r20, r22
     d3c:	a0 01       	movw	r20, r0
     d3e:	11 24       	eor	r1, r1
     d40:	24 2b       	or	r18, r20
     d42:	9d 7c       	andi	r25, 0xCD	; 205
     d44:	29 2b       	or	r18, r25
     d46:	25 b9       	out	0x05, r18	; 5
     d48:	9b b1       	in	r25, 0x0b	; 11
     d4a:	88 70       	andi	r24, 0x08	; 8
     d4c:	82 95       	swap	r24
     d4e:	80 7f       	andi	r24, 0xF0	; 240
     d50:	9f 77       	andi	r25, 0x7F	; 127
     d52:	89 2b       	or	r24, r25
     d54:	8b b9       	out	0x0b, r24	; 11
     d56:	5c 9a       	sbi	0x0b, 4	; 11
     d58:	0e 94 5a 06 	call	0xcb4	; 0xcb4 <delay_us.constprop.0>
     d5c:	5c 98       	cbi	0x0b, 4	; 11
     d5e:	0e 94 5a 06 	call	0xcb4	; 0xcb4 <delay_us.constprop.0>
     d62:	08 95       	ret

00000d64 <_ZN12OrangutanLCD4sendEhhh>:
     d64:	a0 e0       	ldi	r26, 0x00	; 0
     d66:	b0 e0       	ldi	r27, 0x00	; 0
     d68:	e8 eb       	ldi	r30, 0xB8	; 184
     d6a:	f6 e0       	ldi	r31, 0x06	; 6
     d6c:	0c 94 7c 0f 	jmp	0x1ef8	; 0x1ef8 <__prologue_saves__+0x16>
     d70:	c8 2f       	mov	r28, r24
     d72:	d6 2e       	mov	r13, r22
     d74:	e4 2e       	mov	r14, r20
     d76:	80 91 ad 01 	lds	r24, 0x01AD	; 0x8001ad <_ZZN12OrangutanLCD4initEvE11initialized>
     d7a:	81 11       	cpse	r24, r1
     d7c:	05 c0       	rjmp	.+10     	; 0xd88 <_ZN12OrangutanLCD4sendEhhh+0x24>
     d7e:	81 e0       	ldi	r24, 0x01	; 1
     d80:	80 93 ad 01 	sts	0x01AD, r24	; 0x8001ad <_ZZN12OrangutanLCD4initEvE11initialized>
     d84:	0e 94 22 07 	call	0xe44	; 0xe44 <_ZN12OrangutanLCD5init2Ev>
     d88:	0e 94 64 06 	call	0xcc8	; 0xcc8 <_ZN12OrangutanLCD8busyWaitEv>
     d8c:	14 b1       	in	r17, 0x04	; 4
     d8e:	d5 b1       	in	r29, 0x05	; 5
     d90:	fa b0       	in	r15, 0x0a	; 10
     d92:	0b b1       	in	r16, 0x0b	; 11
     d94:	28 98       	cbi	0x05, 0	; 5
     d96:	dd 20       	and	r13, r13
     d98:	11 f0       	breq	.+4      	; 0xd9e <_ZN12OrangutanLCD4sendEhhh+0x3a>
     d9a:	5a 9a       	sbi	0x0b, 2	; 11
     d9c:	01 c0       	rjmp	.+2      	; 0xda0 <_ZN12OrangutanLCD4sendEhhh+0x3c>
     d9e:	5a 98       	cbi	0x0b, 2	; 11
     da0:	94 b1       	in	r25, 0x04	; 4
     da2:	92 63       	ori	r25, 0x32	; 50
     da4:	94 b9       	out	0x04, r25	; 4
     da6:	57 9a       	sbi	0x0a, 7	; 10
     da8:	81 e0       	ldi	r24, 0x01	; 1
     daa:	e8 16       	cp	r14, r24
     dac:	29 f0       	breq	.+10     	; 0xdb8 <_ZN12OrangutanLCD4sendEhhh+0x54>
     dae:	8c 2f       	mov	r24, r28
     db0:	82 95       	swap	r24
     db2:	8f 70       	andi	r24, 0x0F	; 15
     db4:	0e 94 94 06 	call	0xd28	; 0xd28 <_ZN12OrangutanLCD8sendDataEh>
     db8:	8c 2f       	mov	r24, r28
     dba:	8f 70       	andi	r24, 0x0F	; 15
     dbc:	0e 94 94 06 	call	0xd28	; 0xd28 <_ZN12OrangutanLCD8sendDataEh>
     dc0:	fa b8       	out	0x0a, r15	; 10
     dc2:	0b b9       	out	0x0b, r16	; 11
     dc4:	14 b9       	out	0x04, r17	; 4
     dc6:	d5 b9       	out	0x05, r29	; 5
     dc8:	cd b7       	in	r28, 0x3d	; 61
     dca:	de b7       	in	r29, 0x3e	; 62
     dcc:	e7 e0       	ldi	r30, 0x07	; 7
     dce:	0c 94 98 0f 	jmp	0x1f30	; 0x1f30 <__epilogue_restores__+0x16>

00000dd2 <_ZN12OrangutanLCD8send_cmdEh>:
     dd2:	42 e0       	ldi	r20, 0x02	; 2
     dd4:	60 e0       	ldi	r22, 0x00	; 0
     dd6:	0e 94 b2 06 	call	0xd64	; 0xd64 <_ZN12OrangutanLCD4sendEhhh>
     dda:	08 95       	ret

00000ddc <_ZN12OrangutanLCD9send_dataEh>:
     ddc:	42 e0       	ldi	r20, 0x02	; 2
     dde:	61 e0       	ldi	r22, 0x01	; 1
     de0:	0e 94 b2 06 	call	0xd64	; 0xd64 <_ZN12OrangutanLCD4sendEhhh>
     de4:	08 95       	ret

00000de6 <_ZN12OrangutanLCD19loadCustomCharacterEPKch>:
     de6:	a1 e0       	ldi	r26, 0x01	; 1
     de8:	b0 e0       	ldi	r27, 0x00	; 0
     dea:	e9 ef       	ldi	r30, 0xF9	; 249
     dec:	f6 e0       	ldi	r31, 0x06	; 6
     dee:	0c 94 7d 0f 	jmp	0x1efa	; 0x1efa <__prologue_saves__+0x18>
     df2:	8c 01       	movw	r16, r24
     df4:	66 0f       	add	r22, r22
     df6:	66 0f       	add	r22, r22
     df8:	66 0f       	add	r22, r22
     dfa:	e1 2c       	mov	r14, r1
     dfc:	f1 2c       	mov	r15, r1
     dfe:	8e 2d       	mov	r24, r14
     e00:	86 0f       	add	r24, r22
     e02:	80 64       	ori	r24, 0x40	; 64
     e04:	69 83       	std	Y+1, r22	; 0x01
     e06:	0e 94 e9 06 	call	0xdd2	; 0xdd2 <_ZN12OrangutanLCD8send_cmdEh>
     e0a:	f8 01       	movw	r30, r16
     e0c:	ee 0d       	add	r30, r14
     e0e:	ff 1d       	adc	r31, r15
     e10:	84 91       	lpm	r24, Z
     e12:	0e 94 ee 06 	call	0xddc	; 0xddc <_ZN12OrangutanLCD9send_dataEh>
     e16:	8f ef       	ldi	r24, 0xFF	; 255
     e18:	e8 1a       	sub	r14, r24
     e1a:	f8 0a       	sbc	r15, r24
     e1c:	69 81       	ldd	r22, Y+1	; 0x01
     e1e:	e8 e0       	ldi	r30, 0x08	; 8
     e20:	ee 16       	cp	r14, r30
     e22:	f1 04       	cpc	r15, r1
     e24:	61 f7       	brne	.-40     	; 0xdfe <_ZN12OrangutanLCD19loadCustomCharacterEPKch+0x18>
     e26:	21 96       	adiw	r28, 0x01	; 1
     e28:	e6 e0       	ldi	r30, 0x06	; 6
     e2a:	0c 94 99 0f 	jmp	0x1f32	; 0x1f32 <__epilogue_restores__+0x18>

00000e2e <lcd_load_custom_character>:
     e2e:	0e 94 f3 06 	call	0xde6	; 0xde6 <_ZN12OrangutanLCD19loadCustomCharacterEPKch>
     e32:	08 95       	ret

00000e34 <print_character>:
     e34:	0e 94 ee 06 	call	0xddc	; 0xddc <_ZN12OrangutanLCD9send_dataEh>
     e38:	08 95       	ret

00000e3a <_ZN12OrangutanLCD13send_4bit_cmdEh>:
     e3a:	41 e0       	ldi	r20, 0x01	; 1
     e3c:	60 e0       	ldi	r22, 0x00	; 0
     e3e:	0e 94 b2 06 	call	0xd64	; 0xd64 <_ZN12OrangutanLCD4sendEhhh>
     e42:	08 95       	ret

00000e44 <_ZN12OrangutanLCD5init2Ev>:
     e44:	80 e1       	ldi	r24, 0x10	; 16
     e46:	97 e2       	ldi	r25, 0x27	; 39
     e48:	a0 e0       	ldi	r26, 0x00	; 0
     e4a:	b0 e0       	ldi	r27, 0x00	; 0
     e4c:	80 93 53 01 	sts	0x0153, r24	; 0x800153 <lcdTimeout>
     e50:	90 93 54 01 	sts	0x0154, r25	; 0x800154 <lcdTimeout+0x1>
     e54:	a0 93 55 01 	sts	0x0155, r26	; 0x800155 <lcdTimeout+0x2>
     e58:	b0 93 56 01 	sts	0x0156, r27	; 0x800156 <lcdTimeout+0x3>
     e5c:	52 9a       	sbi	0x0a, 2	; 10
     e5e:	20 9a       	sbi	0x04, 0	; 4
     e60:	54 9a       	sbi	0x0a, 4	; 10
     e62:	8e e1       	ldi	r24, 0x1E	; 30
     e64:	90 e0       	ldi	r25, 0x00	; 0
     e66:	0e 94 66 09 	call	0x12cc	; 0x12cc <delay_ms>
     e6a:	83 e0       	ldi	r24, 0x03	; 3
     e6c:	0e 94 1d 07 	call	0xe3a	; 0xe3a <_ZN12OrangutanLCD13send_4bit_cmdEh>
     e70:	86 e0       	ldi	r24, 0x06	; 6
     e72:	90 e0       	ldi	r25, 0x00	; 0
     e74:	0e 94 66 09 	call	0x12cc	; 0x12cc <delay_ms>
     e78:	83 e0       	ldi	r24, 0x03	; 3
     e7a:	0e 94 1d 07 	call	0xe3a	; 0xe3a <_ZN12OrangutanLCD13send_4bit_cmdEh>
     e7e:	82 e0       	ldi	r24, 0x02	; 2
     e80:	90 e0       	ldi	r25, 0x00	; 0
     e82:	0e 94 66 09 	call	0x12cc	; 0x12cc <delay_ms>
     e86:	83 e0       	ldi	r24, 0x03	; 3
     e88:	0e 94 1d 07 	call	0xe3a	; 0xe3a <_ZN12OrangutanLCD13send_4bit_cmdEh>
     e8c:	82 e0       	ldi	r24, 0x02	; 2
     e8e:	90 e0       	ldi	r25, 0x00	; 0
     e90:	0e 94 66 09 	call	0x12cc	; 0x12cc <delay_ms>
     e94:	82 e0       	ldi	r24, 0x02	; 2
     e96:	0e 94 1d 07 	call	0xe3a	; 0xe3a <_ZN12OrangutanLCD13send_4bit_cmdEh>
     e9a:	82 e0       	ldi	r24, 0x02	; 2
     e9c:	90 e0       	ldi	r25, 0x00	; 0
     e9e:	0e 94 66 09 	call	0x12cc	; 0x12cc <delay_ms>
     ea2:	88 e2       	ldi	r24, 0x28	; 40
     ea4:	0e 94 e9 06 	call	0xdd2	; 0xdd2 <_ZN12OrangutanLCD8send_cmdEh>
     ea8:	88 e0       	ldi	r24, 0x08	; 8
     eaa:	0e 94 e9 06 	call	0xdd2	; 0xdd2 <_ZN12OrangutanLCD8send_cmdEh>
     eae:	81 e0       	ldi	r24, 0x01	; 1
     eb0:	0e 94 e9 06 	call	0xdd2	; 0xdd2 <_ZN12OrangutanLCD8send_cmdEh>
     eb4:	86 e0       	ldi	r24, 0x06	; 6
     eb6:	0e 94 e9 06 	call	0xdd2	; 0xdd2 <_ZN12OrangutanLCD8send_cmdEh>
     eba:	8c e0       	ldi	r24, 0x0C	; 12
     ebc:	0e 94 e9 06 	call	0xdd2	; 0xdd2 <_ZN12OrangutanLCD8send_cmdEh>
     ec0:	08 95       	ret

00000ec2 <_ZN12OrangutanLCD5clearEv>:
     ec2:	81 e0       	ldi	r24, 0x01	; 1
     ec4:	0e 94 e9 06 	call	0xdd2	; 0xdd2 <_ZN12OrangutanLCD8send_cmdEh>
     ec8:	80 91 59 01 	lds	r24, 0x0159	; 0x800159 <printf_chars>
     ecc:	90 91 5a 01 	lds	r25, 0x015A	; 0x80015a <printf_chars+0x1>
     ed0:	89 2b       	or	r24, r25
     ed2:	f9 f0       	breq	.+62     	; 0xf12 <_ZN12OrangutanLCD5clearEv+0x50>
     ed4:	60 e0       	ldi	r22, 0x00	; 0
     ed6:	a0 e2       	ldi	r26, 0x20	; 32
     ed8:	26 2f       	mov	r18, r22
     eda:	30 e0       	ldi	r19, 0x00	; 0
     edc:	70 91 0c 01 	lds	r23, 0x010C	; 0x80010c <numLCDCols>
     ee0:	80 91 0d 01 	lds	r24, 0x010D	; 0x80010d <numLCDRows>
     ee4:	90 e0       	ldi	r25, 0x00	; 0
     ee6:	01 97       	sbiw	r24, 0x01	; 1
     ee8:	78 9f       	mul	r23, r24
     eea:	a0 01       	movw	r20, r0
     eec:	79 9f       	mul	r23, r25
     eee:	50 0d       	add	r21, r0
     ef0:	11 24       	eor	r1, r1
     ef2:	24 17       	cp	r18, r20
     ef4:	35 07       	cpc	r19, r21
     ef6:	4c f4       	brge	.+18     	; 0xf0a <_ZN12OrangutanLCD5clearEv+0x48>
     ef8:	e0 91 59 01 	lds	r30, 0x0159	; 0x800159 <printf_chars>
     efc:	f0 91 5a 01 	lds	r31, 0x015A	; 0x80015a <printf_chars+0x1>
     f00:	e2 0f       	add	r30, r18
     f02:	f3 1f       	adc	r31, r19
     f04:	a0 83       	st	Z, r26
     f06:	6f 5f       	subi	r22, 0xFF	; 255
     f08:	e7 cf       	rjmp	.-50     	; 0xed8 <_ZN12OrangutanLCD5clearEv+0x16>
     f0a:	10 92 57 01 	sts	0x0157, r1	; 0x800157 <col>
     f0e:	10 92 58 01 	sts	0x0158, r1	; 0x800158 <row>
     f12:	08 95       	ret

00000f14 <clear>:
     f14:	0e 94 61 07 	call	0xec2	; 0xec2 <_ZN12OrangutanLCD5clearEv>
     f18:	08 95       	ret

00000f1a <_ZN12OrangutanLCD5printEPKc>:
     f1a:	cf 93       	push	r28
     f1c:	df 93       	push	r29
     f1e:	ec 01       	movw	r28, r24
     f20:	89 91       	ld	r24, Y+
     f22:	88 23       	and	r24, r24
     f24:	19 f0       	breq	.+6      	; 0xf2c <_ZN12OrangutanLCD5printEPKc+0x12>
     f26:	0e 94 ee 06 	call	0xddc	; 0xddc <_ZN12OrangutanLCD9send_dataEh>
     f2a:	fa cf       	rjmp	.-12     	; 0xf20 <_ZN12OrangutanLCD5printEPKc+0x6>
     f2c:	df 91       	pop	r29
     f2e:	cf 91       	pop	r28
     f30:	08 95       	ret

00000f32 <print>:
     f32:	0e 94 8d 07 	call	0xf1a	; 0xf1a <_ZN12OrangutanLCD5printEPKc>
     f36:	08 95       	ret

00000f38 <_ZN12OrangutanLCD21printFromProgramSpaceEPKc>:
     f38:	cf 93       	push	r28
     f3a:	df 93       	push	r29
     f3c:	ec 01       	movw	r28, r24
     f3e:	fe 01       	movw	r30, r28
     f40:	84 91       	lpm	r24, Z
     f42:	88 23       	and	r24, r24
     f44:	21 f0       	breq	.+8      	; 0xf4e <_ZN12OrangutanLCD21printFromProgramSpaceEPKc+0x16>
     f46:	0e 94 ee 06 	call	0xddc	; 0xddc <_ZN12OrangutanLCD9send_dataEh>
     f4a:	21 96       	adiw	r28, 0x01	; 1
     f4c:	f8 cf       	rjmp	.-16     	; 0xf3e <_ZN12OrangutanLCD21printFromProgramSpaceEPKc+0x6>
     f4e:	df 91       	pop	r29
     f50:	cf 91       	pop	r28
     f52:	08 95       	ret

00000f54 <print_from_program_space>:
     f54:	0e 94 9c 07 	call	0xf38	; 0xf38 <_ZN12OrangutanLCD21printFromProgramSpaceEPKc>
     f58:	08 95       	ret

00000f5a <_ZN12OrangutanLCD5printEm>:
     f5a:	aa e0       	ldi	r26, 0x0A	; 10
     f5c:	b0 e0       	ldi	r27, 0x00	; 0
     f5e:	e3 eb       	ldi	r30, 0xB3	; 179
     f60:	f7 e0       	ldi	r31, 0x07	; 7
     f62:	0c 94 7b 0f 	jmp	0x1ef6	; 0x1ef6 <__prologue_saves__+0x14>
     f66:	1a e0       	ldi	r17, 0x0A	; 10
     f68:	5a e0       	ldi	r21, 0x0A	; 10
     f6a:	c5 2e       	mov	r12, r21
     f6c:	d1 2c       	mov	r13, r1
     f6e:	e1 2c       	mov	r14, r1
     f70:	f1 2c       	mov	r15, r1
     f72:	06 2f       	mov	r16, r22
     f74:	a7 01       	movw	r20, r14
     f76:	96 01       	movw	r18, r12
     f78:	0e 94 0e 0f 	call	0x1e1c	; 0x1e1c <__udivmodsi4>
     f7c:	ca 01       	movw	r24, r20
     f7e:	b9 01       	movw	r22, r18
     f80:	11 50       	subi	r17, 0x01	; 1
     f82:	e1 e0       	ldi	r30, 0x01	; 1
     f84:	f0 e0       	ldi	r31, 0x00	; 0
     f86:	ec 0f       	add	r30, r28
     f88:	fd 1f       	adc	r31, r29
     f8a:	e1 0f       	add	r30, r17
     f8c:	f1 1d       	adc	r31, r1
     f8e:	00 5d       	subi	r16, 0xD0	; 208
     f90:	2a e0       	ldi	r18, 0x0A	; 10
     f92:	62 9f       	mul	r22, r18
     f94:	00 19       	sub	r16, r0
     f96:	11 24       	eor	r1, r1
     f98:	00 83       	st	Z, r16
     f9a:	61 15       	cp	r22, r1
     f9c:	71 05       	cpc	r23, r1
     f9e:	81 05       	cpc	r24, r1
     fa0:	91 05       	cpc	r25, r1
     fa2:	39 f7       	brne	.-50     	; 0xf72 <_ZN12OrangutanLCD5printEm+0x18>
     fa4:	1a 30       	cpi	r17, 0x0A	; 10
     fa6:	58 f4       	brcc	.+22     	; 0xfbe <_ZN12OrangutanLCD5printEm+0x64>
     fa8:	e1 e0       	ldi	r30, 0x01	; 1
     faa:	f0 e0       	ldi	r31, 0x00	; 0
     fac:	ec 0f       	add	r30, r28
     fae:	fd 1f       	adc	r31, r29
     fb0:	e1 0f       	add	r30, r17
     fb2:	f1 1d       	adc	r31, r1
     fb4:	80 81       	ld	r24, Z
     fb6:	0e 94 ee 06 	call	0xddc	; 0xddc <_ZN12OrangutanLCD9send_dataEh>
     fba:	1f 5f       	subi	r17, 0xFF	; 255
     fbc:	f3 cf       	rjmp	.-26     	; 0xfa4 <_ZN12OrangutanLCD5printEm+0x4a>
     fbe:	2a 96       	adiw	r28, 0x0a	; 10
     fc0:	e8 e0       	ldi	r30, 0x08	; 8
     fc2:	0c 94 97 0f 	jmp	0x1f2e	; 0x1f2e <__epilogue_restores__+0x14>

00000fc6 <_ZN12OrangutanLCD5printEl>:
     fc6:	cf 92       	push	r12
     fc8:	df 92       	push	r13
     fca:	ef 92       	push	r14
     fcc:	ff 92       	push	r15
     fce:	6b 01       	movw	r12, r22
     fd0:	7c 01       	movw	r14, r24
     fd2:	97 ff       	sbrs	r25, 7
     fd4:	0b c0       	rjmp	.+22     	; 0xfec <_ZN12OrangutanLCD5printEl+0x26>
     fd6:	f0 94       	com	r15
     fd8:	e0 94       	com	r14
     fda:	d0 94       	com	r13
     fdc:	c0 94       	com	r12
     fde:	c1 1c       	adc	r12, r1
     fe0:	d1 1c       	adc	r13, r1
     fe2:	e1 1c       	adc	r14, r1
     fe4:	f1 1c       	adc	r15, r1
     fe6:	8d e2       	ldi	r24, 0x2D	; 45
     fe8:	0e 94 ee 06 	call	0xddc	; 0xddc <_ZN12OrangutanLCD9send_dataEh>
     fec:	c7 01       	movw	r24, r14
     fee:	b6 01       	movw	r22, r12
     ff0:	0e 94 ad 07 	call	0xf5a	; 0xf5a <_ZN12OrangutanLCD5printEm>
     ff4:	ff 90       	pop	r15
     ff6:	ef 90       	pop	r14
     ff8:	df 90       	pop	r13
     ffa:	cf 90       	pop	r12
     ffc:	08 95       	ret

00000ffe <print_long>:
     ffe:	0e 94 e3 07 	call	0xfc6	; 0xfc6 <_ZN12OrangutanLCD5printEl>
    1002:	08 95       	ret

00001004 <_ZN12OrangutanLCD6gotoXYEhh>:
    1004:	a5 e0       	ldi	r26, 0x05	; 5
    1006:	b0 e0       	ldi	r27, 0x00	; 0
    1008:	e8 e0       	ldi	r30, 0x08	; 8
    100a:	f8 e0       	ldi	r31, 0x08	; 8
    100c:	0c 94 80 0f 	jmp	0x1f00	; 0x1f00 <__prologue_saves__+0x1e>
    1010:	18 2f       	mov	r17, r24
    1012:	80 e8       	ldi	r24, 0x80	; 128
    1014:	89 83       	std	Y+1, r24	; 0x01
    1016:	80 ec       	ldi	r24, 0xC0	; 192
    1018:	8a 83       	std	Y+2, r24	; 0x02
    101a:	84 e9       	ldi	r24, 0x94	; 148
    101c:	8b 83       	std	Y+3, r24	; 0x03
    101e:	84 ed       	ldi	r24, 0xD4	; 212
    1020:	8c 83       	std	Y+4, r24	; 0x04
    1022:	fe 01       	movw	r30, r28
    1024:	e6 0f       	add	r30, r22
    1026:	f1 1d       	adc	r31, r1
    1028:	81 81       	ldd	r24, Z+1	; 0x01
    102a:	81 0f       	add	r24, r17
    102c:	6d 83       	std	Y+5, r22	; 0x05
    102e:	0e 94 e9 06 	call	0xdd2	; 0xdd2 <_ZN12OrangutanLCD8send_cmdEh>
    1032:	10 93 57 01 	sts	0x0157, r17	; 0x800157 <col>
    1036:	6d 81       	ldd	r22, Y+5	; 0x05
    1038:	60 93 58 01 	sts	0x0158, r22	; 0x800158 <row>
    103c:	25 96       	adiw	r28, 0x05	; 5
    103e:	e3 e0       	ldi	r30, 0x03	; 3
    1040:	0c 94 9c 0f 	jmp	0x1f38	; 0x1f38 <__epilogue_restores__+0x1e>

00001044 <lcd_goto_xy>:
    1044:	0e 94 02 08 	call	0x1004	; 0x1004 <_ZN12OrangutanLCD6gotoXYEhh>
    1048:	08 95       	ret

0000104a <_ZN16OrangutanDigital9setOutputEhh>:
    104a:	88 30       	cpi	r24, 0x08	; 8
    104c:	58 f4       	brcc	.+22     	; 0x1064 <_ZN16OrangutanDigital9setOutputEhh+0x1a>
    104e:	91 e0       	ldi	r25, 0x01	; 1
    1050:	01 c0       	rjmp	.+2      	; 0x1054 <_ZN16OrangutanDigital9setOutputEhh+0xa>
    1052:	99 0f       	add	r25, r25
    1054:	8a 95       	dec	r24
    1056:	ea f7       	brpl	.-6      	; 0x1052 <_ZN16OrangutanDigital9setOutputEhh+0x8>
    1058:	89 2f       	mov	r24, r25
    105a:	aa e2       	ldi	r26, 0x2A	; 42
    105c:	b0 e0       	ldi	r27, 0x00	; 0
    105e:	eb e2       	ldi	r30, 0x2B	; 43
    1060:	f0 e0       	ldi	r31, 0x00	; 0
    1062:	21 c0       	rjmp	.+66     	; 0x10a6 <_ZN16OrangutanDigital9setOutputEhh+0x5c>
    1064:	8e 30       	cpi	r24, 0x0E	; 14
    1066:	60 f4       	brcc	.+24     	; 0x1080 <_ZN16OrangutanDigital9setOutputEhh+0x36>
    1068:	98 ef       	ldi	r25, 0xF8	; 248
    106a:	98 0f       	add	r25, r24
    106c:	81 e0       	ldi	r24, 0x01	; 1
    106e:	01 c0       	rjmp	.+2      	; 0x1072 <_ZN16OrangutanDigital9setOutputEhh+0x28>
    1070:	88 0f       	add	r24, r24
    1072:	9a 95       	dec	r25
    1074:	ea f7       	brpl	.-6      	; 0x1070 <_ZN16OrangutanDigital9setOutputEhh+0x26>
    1076:	a4 e2       	ldi	r26, 0x24	; 36
    1078:	b0 e0       	ldi	r27, 0x00	; 0
    107a:	e5 e2       	ldi	r30, 0x25	; 37
    107c:	f0 e0       	ldi	r31, 0x00	; 0
    107e:	13 c0       	rjmp	.+38     	; 0x10a6 <_ZN16OrangutanDigital9setOutputEhh+0x5c>
    1080:	85 31       	cpi	r24, 0x15	; 21
    1082:	60 f4       	brcc	.+24     	; 0x109c <_ZN16OrangutanDigital9setOutputEhh+0x52>
    1084:	92 ef       	ldi	r25, 0xF2	; 242
    1086:	98 0f       	add	r25, r24
    1088:	81 e0       	ldi	r24, 0x01	; 1
    108a:	01 c0       	rjmp	.+2      	; 0x108e <_ZN16OrangutanDigital9setOutputEhh+0x44>
    108c:	88 0f       	add	r24, r24
    108e:	9a 95       	dec	r25
    1090:	ea f7       	brpl	.-6      	; 0x108c <_ZN16OrangutanDigital9setOutputEhh+0x42>
    1092:	a7 e2       	ldi	r26, 0x27	; 39
    1094:	b0 e0       	ldi	r27, 0x00	; 0
    1096:	e8 e2       	ldi	r30, 0x28	; 40
    1098:	f0 e0       	ldi	r31, 0x00	; 0
    109a:	05 c0       	rjmp	.+10     	; 0x10a6 <_ZN16OrangutanDigital9setOutputEhh+0x5c>
    109c:	80 e0       	ldi	r24, 0x00	; 0
    109e:	a0 e0       	ldi	r26, 0x00	; 0
    10a0:	b0 e0       	ldi	r27, 0x00	; 0
    10a2:	e0 e0       	ldi	r30, 0x00	; 0
    10a4:	f0 e0       	ldi	r31, 0x00	; 0
    10a6:	6f 3f       	cpi	r22, 0xFF	; 255
    10a8:	19 f4       	brne	.+6      	; 0x10b0 <_ZN16OrangutanDigital9setOutputEhh+0x66>
    10aa:	90 81       	ld	r25, Z
    10ac:	98 27       	eor	r25, r24
    10ae:	09 c0       	rjmp	.+18     	; 0x10c2 <_ZN16OrangutanDigital9setOutputEhh+0x78>
    10b0:	66 23       	and	r22, r22
    10b2:	19 f0       	breq	.+6      	; 0x10ba <_ZN16OrangutanDigital9setOutputEhh+0x70>
    10b4:	90 81       	ld	r25, Z
    10b6:	98 2b       	or	r25, r24
    10b8:	04 c0       	rjmp	.+8      	; 0x10c2 <_ZN16OrangutanDigital9setOutputEhh+0x78>
    10ba:	20 81       	ld	r18, Z
    10bc:	98 2f       	mov	r25, r24
    10be:	90 95       	com	r25
    10c0:	92 23       	and	r25, r18
    10c2:	90 83       	st	Z, r25
    10c4:	9c 91       	ld	r25, X
    10c6:	98 2b       	or	r25, r24
    10c8:	9c 93       	st	X, r25
    10ca:	08 95       	ret

000010cc <_ZN15OrangutanMotors5init2Ev>:
    10cc:	83 ef       	ldi	r24, 0xF3	; 243
    10ce:	80 93 b0 00 	sts	0x00B0, r24	; 0x8000b0 <__TEXT_REGION_LENGTH__+0x7e00b0>
    10d2:	84 bd       	out	0x24, r24	; 36
    10d4:	82 e0       	ldi	r24, 0x02	; 2
    10d6:	80 93 b1 00 	sts	0x00B1, r24	; 0x8000b1 <__TEXT_REGION_LENGTH__+0x7e00b1>
    10da:	85 bd       	out	0x25, r24	; 37
    10dc:	10 92 b4 00 	sts	0x00B4, r1	; 0x8000b4 <__TEXT_REGION_LENGTH__+0x7e00b4>
    10e0:	10 92 b3 00 	sts	0x00B3, r1	; 0x8000b3 <__TEXT_REGION_LENGTH__+0x7e00b3>
    10e4:	18 bc       	out	0x28, r1	; 40
    10e6:	17 bc       	out	0x27, r1	; 39
    10e8:	60 e0       	ldi	r22, 0x00	; 0
    10ea:	86 e0       	ldi	r24, 0x06	; 6
    10ec:	0e 94 25 08 	call	0x104a	; 0x104a <_ZN16OrangutanDigital9setOutputEhh>
    10f0:	60 e0       	ldi	r22, 0x00	; 0
    10f2:	85 e0       	ldi	r24, 0x05	; 5
    10f4:	0e 94 25 08 	call	0x104a	; 0x104a <_ZN16OrangutanDigital9setOutputEhh>
    10f8:	60 e0       	ldi	r22, 0x00	; 0
    10fa:	8b e0       	ldi	r24, 0x0B	; 11
    10fc:	0e 94 25 08 	call	0x104a	; 0x104a <_ZN16OrangutanDigital9setOutputEhh>
    1100:	60 e0       	ldi	r22, 0x00	; 0
    1102:	83 e0       	ldi	r24, 0x03	; 3
    1104:	0e 94 25 08 	call	0x104a	; 0x104a <_ZN16OrangutanDigital9setOutputEhh>
    1108:	08 95       	ret

0000110a <_ZN15OrangutanMotors4initEv>:
    110a:	80 91 ae 01 	lds	r24, 0x01AE	; 0x8001ae <_ZZN15OrangutanMotors4initEvE11initialized>
    110e:	81 11       	cpse	r24, r1
    1110:	05 c0       	rjmp	.+10     	; 0x111c <_ZN15OrangutanMotors4initEv+0x12>
    1112:	81 e0       	ldi	r24, 0x01	; 1
    1114:	80 93 ae 01 	sts	0x01AE, r24	; 0x8001ae <_ZZN15OrangutanMotors4initEvE11initialized>
    1118:	0e 94 66 08 	call	0x10cc	; 0x10cc <_ZN15OrangutanMotors5init2Ev>
    111c:	08 95       	ret

0000111e <_ZN15OrangutanMotors10setM1SpeedEi>:
    111e:	cf 93       	push	r28
    1120:	df 93       	push	r29
    1122:	ec 01       	movw	r28, r24
    1124:	0e 94 85 08 	call	0x110a	; 0x110a <_ZN15OrangutanMotors4initEv>
    1128:	d7 ff       	sbrs	r29, 7
    112a:	05 c0       	rjmp	.+10     	; 0x1136 <_ZN15OrangutanMotors10setM1SpeedEi+0x18>
    112c:	d1 95       	neg	r29
    112e:	c1 95       	neg	r28
    1130:	d1 09       	sbc	r29, r1
    1132:	81 e0       	ldi	r24, 0x01	; 1
    1134:	01 c0       	rjmp	.+2      	; 0x1138 <_ZN15OrangutanMotors10setM1SpeedEi+0x1a>
    1136:	80 e0       	ldi	r24, 0x00	; 0
    1138:	cf 3f       	cpi	r28, 0xFF	; 255
    113a:	d1 05       	cpc	r29, r1
    113c:	19 f0       	breq	.+6      	; 0x1144 <_ZN15OrangutanMotors10setM1SpeedEi+0x26>
    113e:	14 f0       	brlt	.+4      	; 0x1144 <_ZN15OrangutanMotors10setM1SpeedEi+0x26>
    1140:	cf ef       	ldi	r28, 0xFF	; 255
    1142:	d0 e0       	ldi	r29, 0x00	; 0
    1144:	88 23       	and	r24, r24
    1146:	19 f0       	breq	.+6      	; 0x114e <_ZN15OrangutanMotors10setM1SpeedEi+0x30>
    1148:	18 bc       	out	0x28, r1	; 40
    114a:	c7 bd       	out	0x27, r28	; 39
    114c:	02 c0       	rjmp	.+4      	; 0x1152 <_ZN15OrangutanMotors10setM1SpeedEi+0x34>
    114e:	c8 bd       	out	0x28, r28	; 40
    1150:	17 bc       	out	0x27, r1	; 39
    1152:	df 91       	pop	r29
    1154:	cf 91       	pop	r28
    1156:	08 95       	ret

00001158 <_ZN15OrangutanMotors10setM2SpeedEi>:
    1158:	cf 93       	push	r28
    115a:	df 93       	push	r29
    115c:	ec 01       	movw	r28, r24
    115e:	0e 94 85 08 	call	0x110a	; 0x110a <_ZN15OrangutanMotors4initEv>
    1162:	d7 ff       	sbrs	r29, 7
    1164:	05 c0       	rjmp	.+10     	; 0x1170 <_ZN15OrangutanMotors10setM2SpeedEi+0x18>
    1166:	d1 95       	neg	r29
    1168:	c1 95       	neg	r28
    116a:	d1 09       	sbc	r29, r1
    116c:	81 e0       	ldi	r24, 0x01	; 1
    116e:	01 c0       	rjmp	.+2      	; 0x1172 <_ZN15OrangutanMotors10setM2SpeedEi+0x1a>
    1170:	80 e0       	ldi	r24, 0x00	; 0
    1172:	cf 3f       	cpi	r28, 0xFF	; 255
    1174:	d1 05       	cpc	r29, r1
    1176:	19 f0       	breq	.+6      	; 0x117e <_ZN15OrangutanMotors10setM2SpeedEi+0x26>
    1178:	14 f0       	brlt	.+4      	; 0x117e <_ZN15OrangutanMotors10setM2SpeedEi+0x26>
    117a:	cf ef       	ldi	r28, 0xFF	; 255
    117c:	d0 e0       	ldi	r29, 0x00	; 0
    117e:	88 23       	and	r24, r24
    1180:	29 f0       	breq	.+10     	; 0x118c <_ZN15OrangutanMotors10setM2SpeedEi+0x34>
    1182:	10 92 b4 00 	sts	0x00B4, r1	; 0x8000b4 <__TEXT_REGION_LENGTH__+0x7e00b4>
    1186:	c0 93 b3 00 	sts	0x00B3, r28	; 0x8000b3 <__TEXT_REGION_LENGTH__+0x7e00b3>
    118a:	04 c0       	rjmp	.+8      	; 0x1194 <_ZN15OrangutanMotors10setM2SpeedEi+0x3c>
    118c:	c0 93 b4 00 	sts	0x00B4, r28	; 0x8000b4 <__TEXT_REGION_LENGTH__+0x7e00b4>
    1190:	10 92 b3 00 	sts	0x00B3, r1	; 0x8000b3 <__TEXT_REGION_LENGTH__+0x7e00b3>
    1194:	df 91       	pop	r29
    1196:	cf 91       	pop	r28
    1198:	08 95       	ret

0000119a <_ZN15OrangutanMotors9setSpeedsEii>:
    119a:	cf 93       	push	r28
    119c:	df 93       	push	r29
    119e:	eb 01       	movw	r28, r22
    11a0:	0e 94 8f 08 	call	0x111e	; 0x111e <_ZN15OrangutanMotors10setM1SpeedEi>
    11a4:	ce 01       	movw	r24, r28
    11a6:	0e 94 ac 08 	call	0x1158	; 0x1158 <_ZN15OrangutanMotors10setM2SpeedEi>
    11aa:	df 91       	pop	r29
    11ac:	cf 91       	pop	r28
    11ae:	08 95       	ret

000011b0 <set_motors>:
    11b0:	0e 94 cd 08 	call	0x119a	; 0x119a <_ZN15OrangutanMotors9setSpeedsEii>
    11b4:	08 95       	ret

000011b6 <_ZN20OrangutanPushbuttons5init2Ev>:
    11b6:	84 b1       	in	r24, 0x04	; 4
    11b8:	8d 7c       	andi	r24, 0xCD	; 205
    11ba:	84 b9       	out	0x04, r24	; 4
    11bc:	85 b1       	in	r24, 0x05	; 5
    11be:	82 63       	ori	r24, 0x32	; 50
    11c0:	85 b9       	out	0x05, r24	; 5
    11c2:	85 e0       	ldi	r24, 0x05	; 5
    11c4:	90 e0       	ldi	r25, 0x00	; 0
    11c6:	6f 93       	push	r22
    11c8:	64 e0       	ldi	r22, 0x04	; 4
    11ca:	6a 95       	dec	r22
    11cc:	f1 f7       	brne	.-4      	; 0x11ca <_ZN20OrangutanPushbuttons5init2Ev+0x14>
    11ce:	6f 91       	pop	r22
    11d0:	01 97       	sbiw	r24, 0x01	; 1
    11d2:	c9 f7       	brne	.-14     	; 0x11c6 <_ZN20OrangutanPushbuttons5init2Ev+0x10>
    11d4:	08 95       	ret

000011d6 <_ZN20OrangutanPushbuttons4initEv>:
    11d6:	80 91 af 01 	lds	r24, 0x01AF	; 0x8001af <_ZZN20OrangutanPushbuttons4initEvE11initialized>
    11da:	81 11       	cpse	r24, r1
    11dc:	05 c0       	rjmp	.+10     	; 0x11e8 <_ZN20OrangutanPushbuttons4initEv+0x12>
    11de:	81 e0       	ldi	r24, 0x01	; 1
    11e0:	80 93 af 01 	sts	0x01AF, r24	; 0x8001af <_ZZN20OrangutanPushbuttons4initEvE11initialized>
    11e4:	0e 94 db 08 	call	0x11b6	; 0x11b6 <_ZN20OrangutanPushbuttons5init2Ev>
    11e8:	08 95       	ret

000011ea <_ZN20OrangutanPushbuttons14waitForReleaseEh>:
    11ea:	cf 93       	push	r28
    11ec:	c8 2f       	mov	r28, r24
    11ee:	0e 94 eb 08 	call	0x11d6	; 0x11d6 <_ZN20OrangutanPushbuttons4initEv>
    11f2:	83 b1       	in	r24, 0x03	; 3
    11f4:	8c 23       	and	r24, r28
    11f6:	e9 f3       	breq	.-6      	; 0x11f2 <_ZN20OrangutanPushbuttons14waitForReleaseEh+0x8>
    11f8:	8a e0       	ldi	r24, 0x0A	; 10
    11fa:	90 e0       	ldi	r25, 0x00	; 0
    11fc:	0e 94 66 09 	call	0x12cc	; 0x12cc <delay_ms>
    1200:	83 b1       	in	r24, 0x03	; 3
    1202:	8c 23       	and	r24, r28
    1204:	b1 f3       	breq	.-20     	; 0x11f2 <_ZN20OrangutanPushbuttons14waitForReleaseEh+0x8>
    1206:	83 b1       	in	r24, 0x03	; 3
    1208:	8c 23       	and	r24, r28
    120a:	cf 91       	pop	r28
    120c:	08 95       	ret

0000120e <wait_for_button_release>:
    120e:	0e 94 f5 08 	call	0x11ea	; 0x11ea <_ZN20OrangutanPushbuttons14waitForReleaseEh>
    1212:	08 95       	ret

00001214 <_ZN20OrangutanPushbuttons9isPressedEh>:
    1214:	a1 e0       	ldi	r26, 0x01	; 1
    1216:	b0 e0       	ldi	r27, 0x00	; 0
    1218:	e0 e1       	ldi	r30, 0x10	; 16
    121a:	f9 e0       	ldi	r31, 0x09	; 9
    121c:	0c 94 81 0f 	jmp	0x1f02	; 0x1f02 <__prologue_saves__+0x20>
    1220:	89 83       	std	Y+1, r24	; 0x01
    1222:	0e 94 eb 08 	call	0x11d6	; 0x11d6 <_ZN20OrangutanPushbuttons4initEv>
    1226:	93 b1       	in	r25, 0x03	; 3
    1228:	90 95       	com	r25
    122a:	89 81       	ldd	r24, Y+1	; 0x01
    122c:	89 23       	and	r24, r25
    122e:	21 96       	adiw	r28, 0x01	; 1
    1230:	e2 e0       	ldi	r30, 0x02	; 2
    1232:	0c 94 9d 0f 	jmp	0x1f3a	; 0x1f3a <__epilogue_restores__+0x20>

00001236 <button_is_pressed>:
    1236:	0e 94 0a 09 	call	0x1214	; 0x1214 <_ZN20OrangutanPushbuttons9isPressedEh>
    123a:	08 95       	ret

0000123c <__vector_9>:
    123c:	2f 92       	push	r2
    123e:	8f 93       	push	r24
    1240:	9f 93       	push	r25
    1242:	2f b6       	in	r2, 0x3f	; 63
    1244:	80 91 62 01 	lds	r24, 0x0162	; 0x800162 <tickCount+0x1>
    1248:	90 91 63 01 	lds	r25, 0x0163	; 0x800163 <tickCount+0x2>
    124c:	01 96       	adiw	r24, 0x01	; 1
    124e:	80 93 62 01 	sts	0x0162, r24	; 0x800162 <tickCount+0x1>
    1252:	90 93 63 01 	sts	0x0163, r25	; 0x800163 <tickCount+0x2>
    1256:	90 e0       	ldi	r25, 0x00	; 0
    1258:	80 91 64 01 	lds	r24, 0x0164	; 0x800164 <tickCount+0x3>
    125c:	89 1f       	adc	r24, r25
    125e:	80 93 64 01 	sts	0x0164, r24	; 0x800164 <tickCount+0x3>
    1262:	90 91 5c 01 	lds	r25, 0x015C	; 0x80015c <us_over_10+0x1>
    1266:	9c 5f       	subi	r25, 0xFC	; 252
    1268:	90 93 5c 01 	sts	0x015C, r25	; 0x80015c <us_over_10+0x1>
    126c:	80 91 5b 01 	lds	r24, 0x015B	; 0x80015b <us_over_10>
    1270:	80 51       	subi	r24, 0x10	; 16
    1272:	97 42       	sbci	r25, 0x27	; 39
    1274:	c0 f0       	brcs	.+48     	; 0x12a6 <end>
    1276:	90 93 5c 01 	sts	0x015C, r25	; 0x80015c <us_over_10+0x1>
    127a:	80 93 5b 01 	sts	0x015B, r24	; 0x80015b <us_over_10>
    127e:	80 91 5d 01 	lds	r24, 0x015D	; 0x80015d <msCounter>
    1282:	90 91 5e 01 	lds	r25, 0x015E	; 0x80015e <msCounter+0x1>
    1286:	01 96       	adiw	r24, 0x01	; 1
    1288:	80 93 5d 01 	sts	0x015D, r24	; 0x80015d <msCounter>
    128c:	90 93 5e 01 	sts	0x015E, r25	; 0x80015e <msCounter+0x1>
    1290:	90 e0       	ldi	r25, 0x00	; 0
    1292:	80 91 5f 01 	lds	r24, 0x015F	; 0x80015f <msCounter+0x2>
    1296:	89 1f       	adc	r24, r25
    1298:	80 93 5f 01 	sts	0x015F, r24	; 0x80015f <msCounter+0x2>
    129c:	80 91 60 01 	lds	r24, 0x0160	; 0x800160 <msCounter+0x3>
    12a0:	89 1f       	adc	r24, r25
    12a2:	80 93 60 01 	sts	0x0160, r24	; 0x800160 <msCounter+0x3>

000012a6 <end>:
    12a6:	2f be       	out	0x3f, r2	; 63
    12a8:	9f 91       	pop	r25
    12aa:	8f 91       	pop	r24
    12ac:	2f 90       	pop	r2
    12ae:	18 95       	reti

000012b0 <_ZN13OrangutanTime17delayMillisecondsEj>:
    12b0:	28 ee       	ldi	r18, 0xE8	; 232
    12b2:	33 e0       	ldi	r19, 0x03	; 3
    12b4:	01 97       	sbiw	r24, 0x01	; 1
    12b6:	48 f0       	brcs	.+18     	; 0x12ca <_ZN13OrangutanTime17delayMillisecondsEj+0x1a>
    12b8:	f9 01       	movw	r30, r18
    12ba:	6f 93       	push	r22
    12bc:	64 e0       	ldi	r22, 0x04	; 4
    12be:	6a 95       	dec	r22
    12c0:	f1 f7       	brne	.-4      	; 0x12be <_ZN13OrangutanTime17delayMillisecondsEj+0xe>
    12c2:	6f 91       	pop	r22
    12c4:	31 97       	sbiw	r30, 0x01	; 1
    12c6:	c9 f7       	brne	.-14     	; 0x12ba <_ZN13OrangutanTime17delayMillisecondsEj+0xa>
    12c8:	f5 cf       	rjmp	.-22     	; 0x12b4 <_ZN13OrangutanTime17delayMillisecondsEj+0x4>
    12ca:	08 95       	ret

000012cc <delay_ms>:
    12cc:	0e 94 58 09 	call	0x12b0	; 0x12b0 <_ZN13OrangutanTime17delayMillisecondsEj>
    12d0:	08 95       	ret

000012d2 <_ZN13OrangutanTime5init2Ev>:
    12d2:	e0 e7       	ldi	r30, 0x70	; 112
    12d4:	f0 e0       	ldi	r31, 0x00	; 0
    12d6:	80 81       	ld	r24, Z
    12d8:	8e 7f       	andi	r24, 0xFE	; 254
    12da:	80 83       	st	Z, r24
    12dc:	a0 eb       	ldi	r26, 0xB0	; 176
    12de:	b0 e0       	ldi	r27, 0x00	; 0
    12e0:	8c 91       	ld	r24, X
    12e2:	83 60       	ori	r24, 0x03	; 3
    12e4:	8c 93       	st	X, r24
    12e6:	a1 eb       	ldi	r26, 0xB1	; 177
    12e8:	b0 e0       	ldi	r27, 0x00	; 0
    12ea:	8c 91       	ld	r24, X
    12ec:	80 7f       	andi	r24, 0xF0	; 240
    12ee:	8c 93       	st	X, r24
    12f0:	8c 91       	ld	r24, X
    12f2:	82 60       	ori	r24, 0x02	; 2
    12f4:	8c 93       	st	X, r24
    12f6:	b8 9a       	sbi	0x17, 0	; 23
    12f8:	80 81       	ld	r24, Z
    12fa:	81 60       	ori	r24, 0x01	; 1
    12fc:	80 83       	st	Z, r24
    12fe:	78 94       	sei
    1300:	08 95       	ret

00001302 <_ZN13OrangutanTime4initEv>:
    1302:	80 91 b0 01 	lds	r24, 0x01B0	; 0x8001b0 <_ZZN13OrangutanTime4initEvE11initialized>
    1306:	81 11       	cpse	r24, r1
    1308:	05 c0       	rjmp	.+10     	; 0x1314 <_ZN13OrangutanTime4initEv+0x12>
    130a:	81 e0       	ldi	r24, 0x01	; 1
    130c:	80 93 b0 01 	sts	0x01B0, r24	; 0x8001b0 <_ZZN13OrangutanTime4initEvE11initialized>
    1310:	0e 94 69 09 	call	0x12d2	; 0x12d2 <_ZN13OrangutanTime5init2Ev>
    1314:	08 95       	ret

00001316 <_ZN13OrangutanTime5resetEv>:
    1316:	0e 94 81 09 	call	0x1302	; 0x1302 <_ZN13OrangutanTime4initEv>
    131a:	e0 e7       	ldi	r30, 0x70	; 112
    131c:	f0 e0       	ldi	r31, 0x00	; 0
    131e:	80 81       	ld	r24, Z
    1320:	8e 7f       	andi	r24, 0xFE	; 254
    1322:	80 83       	st	Z, r24
    1324:	10 92 5d 01 	sts	0x015D, r1	; 0x80015d <msCounter>
    1328:	10 92 5e 01 	sts	0x015E, r1	; 0x80015e <msCounter+0x1>
    132c:	10 92 5f 01 	sts	0x015F, r1	; 0x80015f <msCounter+0x2>
    1330:	10 92 60 01 	sts	0x0160, r1	; 0x800160 <msCounter+0x3>
    1334:	10 92 5c 01 	sts	0x015C, r1	; 0x80015c <us_over_10+0x1>
    1338:	10 92 5b 01 	sts	0x015B, r1	; 0x80015b <us_over_10>
    133c:	80 81       	ld	r24, Z
    133e:	81 60       	ori	r24, 0x01	; 1
    1340:	80 83       	st	Z, r24
    1342:	08 95       	ret

00001344 <calibrate_line_sensors>:
    1344:	68 2f       	mov	r22, r24
    1346:	85 e6       	ldi	r24, 0x65	; 101
    1348:	91 e0       	ldi	r25, 0x01	; 1
    134a:	0e 94 8a 0d 	call	0x1b14	; 0x1b14 <_ZN16PololuQTRSensors9calibrateEh>
    134e:	08 95       	ret

00001350 <read_line>:
    1350:	46 2f       	mov	r20, r22
    1352:	20 e0       	ldi	r18, 0x00	; 0
    1354:	bc 01       	movw	r22, r24
    1356:	85 e6       	ldi	r24, 0x65	; 101
    1358:	91 e0       	ldi	r25, 0x01	; 1
    135a:	0e 94 5b 0e 	call	0x1cb6	; 0x1cb6 <_ZN16PololuQTRSensors8readLineEPjhh>
    135e:	08 95       	ret

00001360 <_ZN9Pololu3pi4initEjh>:
    1360:	0f 93       	push	r16
    1362:	cf 93       	push	r28
    1364:	df 93       	push	r29
    1366:	00 d0       	rcall	.+0      	; 0x1368 <_ZN9Pololu3pi4initEjh+0x8>
    1368:	00 d0       	rcall	.+0      	; 0x136a <_ZN9Pololu3pi4initEjh+0xa>
    136a:	1f 92       	push	r1
    136c:	cd b7       	in	r28, 0x3d	; 61
    136e:	de b7       	in	r29, 0x3e	; 62
    1370:	9c 01       	movw	r18, r24
    1372:	85 e0       	ldi	r24, 0x05	; 5
    1374:	e6 e3       	ldi	r30, 0x36	; 54
    1376:	f1 e0       	ldi	r31, 0x01	; 1
    1378:	de 01       	movw	r26, r28
    137a:	11 96       	adiw	r26, 0x01	; 1
    137c:	01 90       	ld	r0, Z+
    137e:	0d 92       	st	X+, r0
    1380:	8a 95       	dec	r24
    1382:	e1 f7       	brne	.-8      	; 0x137c <_ZN9Pololu3pi4initEjh+0x1c>
    1384:	66 23       	and	r22, r22
    1386:	11 f0       	breq	.+4      	; 0x138c <_ZN9Pololu3pi4initEjh+0x2c>
    1388:	0f ef       	ldi	r16, 0xFF	; 255
    138a:	01 c0       	rjmp	.+2      	; 0x138e <_ZN9Pololu3pi4initEjh+0x2e>
    138c:	03 e1       	ldi	r16, 0x13	; 19
    138e:	45 e0       	ldi	r20, 0x05	; 5
    1390:	be 01       	movw	r22, r28
    1392:	6f 5f       	subi	r22, 0xFF	; 255
    1394:	7f 4f       	sbci	r23, 0xFF	; 255
    1396:	85 e6       	ldi	r24, 0x65	; 101
    1398:	91 e0       	ldi	r25, 0x01	; 1
    139a:	0e 94 82 0a 	call	0x1504	; 0x1504 <_ZN18PololuQTRSensorsRC4initEPhhjh>
    139e:	85 e6       	ldi	r24, 0x65	; 101
    13a0:	91 e0       	ldi	r25, 0x01	; 1
    13a2:	0e 94 59 0a 	call	0x14b2	; 0x14b2 <_ZN16PololuQTRSensors11emittersOffEv>
    13a6:	0e 94 8b 09 	call	0x1316	; 0x1316 <_ZN13OrangutanTime5resetEv>
    13aa:	0f 90       	pop	r0
    13ac:	0f 90       	pop	r0
    13ae:	0f 90       	pop	r0
    13b0:	0f 90       	pop	r0
    13b2:	0f 90       	pop	r0
    13b4:	df 91       	pop	r29
    13b6:	cf 91       	pop	r28
    13b8:	0f 91       	pop	r16
    13ba:	08 95       	ret

000013bc <pololu_3pi_init>:
    13bc:	60 e0       	ldi	r22, 0x00	; 0
    13be:	0e 94 b0 09 	call	0x1360	; 0x1360 <_ZN9Pololu3pi4initEjh>
    13c2:	08 95       	ret

000013c4 <_GLOBAL__sub_D_pololu_3pi_init>:
    13c4:	85 e6       	ldi	r24, 0x65	; 101
    13c6:	91 e0       	ldi	r25, 0x01	; 1
    13c8:	0e 94 d0 0e 	call	0x1da0	; 0x1da0 <_ZN16PololuQTRSensorsD1Ev>
    13cc:	08 95       	ret

000013ce <delay_us>:
    13ce:	6f 93       	push	r22
    13d0:	64 e0       	ldi	r22, 0x04	; 4
    13d2:	6a 95       	dec	r22
    13d4:	f1 f7       	brne	.-4      	; 0x13d2 <delay_us+0x4>
    13d6:	6f 91       	pop	r22
    13d8:	01 97       	sbiw	r24, 0x01	; 1
    13da:	c9 f7       	brne	.-14     	; 0x13ce <delay_us>
    13dc:	08 95       	ret

000013de <_ZN16OrangutanDigital14getIORegistersEP8IOStructh>:
    13de:	fc 01       	movw	r30, r24
    13e0:	11 82       	std	Z+1, r1	; 0x01
    13e2:	10 82       	st	Z, r1
    13e4:	13 82       	std	Z+3, r1	; 0x03
    13e6:	12 82       	std	Z+2, r1	; 0x02
    13e8:	15 82       	std	Z+5, r1	; 0x05
    13ea:	14 82       	std	Z+4, r1	; 0x04
    13ec:	16 82       	std	Z+6, r1	; 0x06
    13ee:	68 30       	cpi	r22, 0x08	; 8
    13f0:	68 f4       	brcc	.+26     	; 0x140c <_ZN16OrangutanDigital14getIORegistersEP8IOStructh+0x2e>
    13f2:	89 e2       	ldi	r24, 0x29	; 41
    13f4:	90 e0       	ldi	r25, 0x00	; 0
    13f6:	91 83       	std	Z+1, r25	; 0x01
    13f8:	80 83       	st	Z, r24
    13fa:	8b e2       	ldi	r24, 0x2B	; 43
    13fc:	90 e0       	ldi	r25, 0x00	; 0
    13fe:	93 83       	std	Z+3, r25	; 0x03
    1400:	82 83       	std	Z+2, r24	; 0x02
    1402:	8a e2       	ldi	r24, 0x2A	; 42
    1404:	90 e0       	ldi	r25, 0x00	; 0
    1406:	95 83       	std	Z+5, r25	; 0x05
    1408:	84 83       	std	Z+4, r24	; 0x04
    140a:	1f c0       	rjmp	.+62     	; 0x144a <_ZN16OrangutanDigital14getIORegistersEP8IOStructh+0x6c>
    140c:	6e 30       	cpi	r22, 0x0E	; 14
    140e:	70 f4       	brcc	.+28     	; 0x142c <_ZN16OrangutanDigital14getIORegistersEP8IOStructh+0x4e>
    1410:	83 e2       	ldi	r24, 0x23	; 35
    1412:	90 e0       	ldi	r25, 0x00	; 0
    1414:	91 83       	std	Z+1, r25	; 0x01
    1416:	80 83       	st	Z, r24
    1418:	85 e2       	ldi	r24, 0x25	; 37
    141a:	90 e0       	ldi	r25, 0x00	; 0
    141c:	93 83       	std	Z+3, r25	; 0x03
    141e:	82 83       	std	Z+2, r24	; 0x02
    1420:	84 e2       	ldi	r24, 0x24	; 36
    1422:	90 e0       	ldi	r25, 0x00	; 0
    1424:	95 83       	std	Z+5, r25	; 0x05
    1426:	84 83       	std	Z+4, r24	; 0x04
    1428:	68 50       	subi	r22, 0x08	; 8
    142a:	0f c0       	rjmp	.+30     	; 0x144a <_ZN16OrangutanDigital14getIORegistersEP8IOStructh+0x6c>
    142c:	65 31       	cpi	r22, 0x15	; 21
    142e:	98 f4       	brcc	.+38     	; 0x1456 <_ZN16OrangutanDigital14getIORegistersEP8IOStructh+0x78>
    1430:	86 e2       	ldi	r24, 0x26	; 38
    1432:	90 e0       	ldi	r25, 0x00	; 0
    1434:	91 83       	std	Z+1, r25	; 0x01
    1436:	80 83       	st	Z, r24
    1438:	88 e2       	ldi	r24, 0x28	; 40
    143a:	90 e0       	ldi	r25, 0x00	; 0
    143c:	93 83       	std	Z+3, r25	; 0x03
    143e:	82 83       	std	Z+2, r24	; 0x02
    1440:	87 e2       	ldi	r24, 0x27	; 39
    1442:	90 e0       	ldi	r25, 0x00	; 0
    1444:	95 83       	std	Z+5, r25	; 0x05
    1446:	84 83       	std	Z+4, r24	; 0x04
    1448:	6e 50       	subi	r22, 0x0E	; 14
    144a:	81 e0       	ldi	r24, 0x01	; 1
    144c:	01 c0       	rjmp	.+2      	; 0x1450 <_ZN16OrangutanDigital14getIORegistersEP8IOStructh+0x72>
    144e:	88 0f       	add	r24, r24
    1450:	6a 95       	dec	r22
    1452:	ea f7       	brpl	.-6      	; 0x144e <_ZN16OrangutanDigital14getIORegistersEP8IOStructh+0x70>
    1454:	86 83       	std	Z+6, r24	; 0x06
    1456:	08 95       	ret

00001458 <_ZN16PololuQTRSensors4initEhhh>:
    1458:	a7 e0       	ldi	r26, 0x07	; 7
    145a:	b0 e0       	ldi	r27, 0x00	; 0
    145c:	e2 e3       	ldi	r30, 0x32	; 50
    145e:	fa e0       	ldi	r31, 0x0A	; 10
    1460:	0c 94 7f 0f 	jmp	0x1efe	; 0x1efe <__prologue_saves__+0x1c>
    1464:	8c 01       	movw	r16, r24
    1466:	fc 01       	movw	r30, r24
    1468:	11 82       	std	Z+1, r1	; 0x01
    146a:	10 82       	st	Z, r1
    146c:	13 82       	std	Z+3, r1	; 0x03
    146e:	12 82       	std	Z+2, r1	; 0x02
    1470:	15 82       	std	Z+5, r1	; 0x05
    1472:	14 82       	std	Z+4, r1	; 0x04
    1474:	17 82       	std	Z+7, r1	; 0x07
    1476:	16 82       	std	Z+6, r1	; 0x06
    1478:	61 31       	cpi	r22, 0x11	; 17
    147a:	18 f0       	brcs	.+6      	; 0x1482 <_ZN16PololuQTRSensors4initEhhh+0x2a>
    147c:	80 e1       	ldi	r24, 0x10	; 16
    147e:	80 87       	std	Z+8, r24	; 0x08
    1480:	02 c0       	rjmp	.+4      	; 0x1486 <_ZN16PololuQTRSensors4initEhhh+0x2e>
    1482:	fc 01       	movw	r30, r24
    1484:	60 87       	std	Z+8, r22	; 0x08
    1486:	f8 01       	movw	r30, r16
    1488:	20 8b       	std	Z+16, r18	; 0x10
    148a:	64 2f       	mov	r22, r20
    148c:	ce 01       	movw	r24, r28
    148e:	01 96       	adiw	r24, 0x01	; 1
    1490:	0e 94 ef 09 	call	0x13de	; 0x13de <_ZN16OrangutanDigital14getIORegistersEP8IOStructh>
    1494:	8f 81       	ldd	r24, Y+7	; 0x07
    1496:	f8 01       	movw	r30, r16
    1498:	81 87       	std	Z+9, r24	; 0x09
    149a:	8b 81       	ldd	r24, Y+3	; 0x03
    149c:	9c 81       	ldd	r25, Y+4	; 0x04
    149e:	93 87       	std	Z+11, r25	; 0x0b
    14a0:	82 87       	std	Z+10, r24	; 0x0a
    14a2:	8d 81       	ldd	r24, Y+5	; 0x05
    14a4:	9e 81       	ldd	r25, Y+6	; 0x06
    14a6:	95 87       	std	Z+13, r25	; 0x0d
    14a8:	84 87       	std	Z+12, r24	; 0x0c
    14aa:	27 96       	adiw	r28, 0x07	; 7
    14ac:	e4 e0       	ldi	r30, 0x04	; 4
    14ae:	0c 94 9b 0f 	jmp	0x1f36	; 0x1f36 <__epilogue_restores__+0x1c>

000014b2 <_ZN16PololuQTRSensors11emittersOffEv>:
    14b2:	fc 01       	movw	r30, r24
    14b4:	a4 85       	ldd	r26, Z+12	; 0x0c
    14b6:	b5 85       	ldd	r27, Z+13	; 0x0d
    14b8:	10 97       	sbiw	r26, 0x00	; 0
    14ba:	79 f0       	breq	.+30     	; 0x14da <_ZN16PololuQTRSensors11emittersOffEv+0x28>
    14bc:	8c 91       	ld	r24, X
    14be:	91 85       	ldd	r25, Z+9	; 0x09
    14c0:	89 2b       	or	r24, r25
    14c2:	8c 93       	st	X, r24
    14c4:	a2 85       	ldd	r26, Z+10	; 0x0a
    14c6:	b3 85       	ldd	r27, Z+11	; 0x0b
    14c8:	9c 91       	ld	r25, X
    14ca:	81 85       	ldd	r24, Z+9	; 0x09
    14cc:	80 95       	com	r24
    14ce:	89 23       	and	r24, r25
    14d0:	8c 93       	st	X, r24
    14d2:	88 ec       	ldi	r24, 0xC8	; 200
    14d4:	90 e0       	ldi	r25, 0x00	; 0
    14d6:	0e 94 e7 09 	call	0x13ce	; 0x13ce <delay_us>
    14da:	08 95       	ret

000014dc <_ZN16PololuQTRSensors10emittersOnEv>:
    14dc:	fc 01       	movw	r30, r24
    14de:	a4 85       	ldd	r26, Z+12	; 0x0c
    14e0:	b5 85       	ldd	r27, Z+13	; 0x0d
    14e2:	10 97       	sbiw	r26, 0x00	; 0
    14e4:	71 f0       	breq	.+28     	; 0x1502 <_ZN16PololuQTRSensors10emittersOnEv+0x26>
    14e6:	8c 91       	ld	r24, X
    14e8:	91 85       	ldd	r25, Z+9	; 0x09
    14ea:	89 2b       	or	r24, r25
    14ec:	8c 93       	st	X, r24
    14ee:	a2 85       	ldd	r26, Z+10	; 0x0a
    14f0:	b3 85       	ldd	r27, Z+11	; 0x0b
    14f2:	8c 91       	ld	r24, X
    14f4:	91 85       	ldd	r25, Z+9	; 0x09
    14f6:	89 2b       	or	r24, r25
    14f8:	8c 93       	st	X, r24
    14fa:	88 ec       	ldi	r24, 0xC8	; 200
    14fc:	90 e0       	ldi	r25, 0x00	; 0
    14fe:	0e 94 e7 09 	call	0x13ce	; 0x13ce <delay_us>
    1502:	08 95       	ret

00001504 <_ZN18PololuQTRSensorsRC4initEPhhjh>:
    1504:	a7 e0       	ldi	r26, 0x07	; 7
    1506:	b0 e0       	ldi	r27, 0x00	; 0
    1508:	e8 e8       	ldi	r30, 0x88	; 136
    150a:	fa e0       	ldi	r31, 0x0A	; 10
    150c:	0c 94 74 0f 	jmp	0x1ee8	; 0x1ee8 <__prologue_saves__+0x6>
    1510:	7c 01       	movw	r14, r24
    1512:	4b 01       	movw	r8, r22
    1514:	64 2f       	mov	r22, r20
    1516:	39 01       	movw	r6, r18
    1518:	40 2f       	mov	r20, r16
    151a:	20 e0       	ldi	r18, 0x00	; 0
    151c:	0e 94 2c 0a 	call	0x1458	; 0x1458 <_ZN16PololuQTRSensors4initEhhh>
    1520:	87 01       	movw	r16, r14
    1522:	0f 5b       	subi	r16, 0xBF	; 191
    1524:	1f 4f       	sbci	r17, 0xFF	; 255
    1526:	f8 01       	movw	r30, r16
    1528:	10 82       	st	Z, r1
    152a:	67 01       	movw	r12, r14
    152c:	f2 e4       	ldi	r31, 0x42	; 66
    152e:	cf 0e       	add	r12, r31
    1530:	d1 1c       	adc	r13, r1
    1532:	f6 01       	movw	r30, r12
    1534:	10 82       	st	Z, r1
    1536:	57 01       	movw	r10, r14
    1538:	f3 e4       	ldi	r31, 0x43	; 67
    153a:	af 0e       	add	r10, r31
    153c:	b1 1c       	adc	r11, r1
    153e:	f5 01       	movw	r30, r10
    1540:	10 82       	st	Z, r1
    1542:	f7 01       	movw	r30, r14
    1544:	77 86       	std	Z+15, r7	; 0x0f
    1546:	66 86       	std	Z+14, r6	; 0x0e
    1548:	51 2c       	mov	r5, r1
    154a:	f7 01       	movw	r30, r14
    154c:	80 85       	ldd	r24, Z+8	; 0x08
    154e:	58 16       	cp	r5, r24
    1550:	50 f5       	brcc	.+84     	; 0x15a6 <_ZN18PololuQTRSensorsRC4initEPhhjh+0xa2>
    1552:	65 2c       	mov	r6, r5
    1554:	71 2c       	mov	r7, r1
    1556:	f4 01       	movw	r30, r8
    1558:	e6 0d       	add	r30, r6
    155a:	f7 1d       	adc	r31, r7
    155c:	60 81       	ld	r22, Z
    155e:	ce 01       	movw	r24, r28
    1560:	01 96       	adiw	r24, 0x01	; 1
    1562:	0e 94 ef 09 	call	0x13de	; 0x13de <_ZN16OrangutanDigital14getIORegistersEP8IOStructh>
    1566:	2f 81       	ldd	r18, Y+7	; 0x07
    1568:	f7 01       	movw	r30, r14
    156a:	e6 0d       	add	r30, r6
    156c:	f7 1d       	adc	r31, r7
    156e:	21 8b       	std	Z+17, r18	; 0x11
    1570:	89 81       	ldd	r24, Y+1	; 0x01
    1572:	9a 81       	ldd	r25, Y+2	; 0x02
    1574:	f3 01       	movw	r30, r6
    1576:	ee 0f       	add	r30, r30
    1578:	ff 1f       	adc	r31, r31
    157a:	ee 0d       	add	r30, r14
    157c:	ff 1d       	adc	r31, r15
    157e:	92 a3       	std	Z+34, r25	; 0x22
    1580:	81 a3       	std	Z+33, r24	; 0x21
    1582:	83 32       	cpi	r24, 0x23	; 35
    1584:	91 05       	cpc	r25, r1
    1586:	11 f4       	brne	.+4      	; 0x158c <_ZN18PololuQTRSensorsRC4initEPhhjh+0x88>
    1588:	f8 01       	movw	r30, r16
    158a:	08 c0       	rjmp	.+16     	; 0x159c <_ZN18PololuQTRSensorsRC4initEPhhjh+0x98>
    158c:	86 32       	cpi	r24, 0x26	; 38
    158e:	91 05       	cpc	r25, r1
    1590:	11 f4       	brne	.+4      	; 0x1596 <_ZN18PololuQTRSensorsRC4initEPhhjh+0x92>
    1592:	f6 01       	movw	r30, r12
    1594:	03 c0       	rjmp	.+6      	; 0x159c <_ZN18PololuQTRSensorsRC4initEPhhjh+0x98>
    1596:	89 97       	sbiw	r24, 0x29	; 41
    1598:	21 f4       	brne	.+8      	; 0x15a2 <_ZN18PololuQTRSensorsRC4initEPhhjh+0x9e>
    159a:	f5 01       	movw	r30, r10
    159c:	80 81       	ld	r24, Z
    159e:	82 2b       	or	r24, r18
    15a0:	80 83       	st	Z, r24
    15a2:	53 94       	inc	r5
    15a4:	d2 cf       	rjmp	.-92     	; 0x154a <_ZN18PololuQTRSensorsRC4initEPhhjh+0x46>
    15a6:	27 96       	adiw	r28, 0x07	; 7
    15a8:	ef e0       	ldi	r30, 0x0F	; 15
    15aa:	0c 94 90 0f 	jmp	0x1f20	; 0x1f20 <__epilogue_restores__+0x6>

000015ae <_ZN18PololuQTRSensorsRC11readPrivateEPj>:
    15ae:	a0 e0       	ldi	r26, 0x00	; 0
    15b0:	b0 e0       	ldi	r27, 0x00	; 0
    15b2:	ed ed       	ldi	r30, 0xDD	; 221
    15b4:	fa e0       	ldi	r31, 0x0A	; 10
    15b6:	0c 94 76 0f 	jmp	0x1eec	; 0x1eec <__prologue_saves__+0xa>
    15ba:	ec 01       	movw	r28, r24
    15bc:	5b 01       	movw	r10, r22
    15be:	6c 01       	movw	r12, r24
    15c0:	81 e4       	ldi	r24, 0x41	; 65
    15c2:	c8 0e       	add	r12, r24
    15c4:	d1 1c       	adc	r13, r1
    15c6:	f6 01       	movw	r30, r12
    15c8:	80 80       	ld	r8, Z
    15ca:	7e 01       	movw	r14, r28
    15cc:	f2 e4       	ldi	r31, 0x42	; 66
    15ce:	ef 0e       	add	r14, r31
    15d0:	f1 1c       	adc	r15, r1
    15d2:	f7 01       	movw	r30, r14
    15d4:	70 80       	ld	r7, Z
    15d6:	8e 01       	movw	r16, r28
    15d8:	0d 5b       	subi	r16, 0xBD	; 189
    15da:	1f 4f       	sbci	r17, 0xFF	; 255
    15dc:	f8 01       	movw	r30, r16
    15de:	90 80       	ld	r9, Z
    15e0:	80 e0       	ldi	r24, 0x00	; 0
    15e2:	98 85       	ldd	r25, Y+8	; 0x08
    15e4:	89 17       	cp	r24, r25
    15e6:	48 f4       	brcc	.+18     	; 0x15fa <_ZN18PololuQTRSensorsRC11readPrivateEPj+0x4c>
    15e8:	f5 01       	movw	r30, r10
    15ea:	e8 0f       	add	r30, r24
    15ec:	f1 1d       	adc	r31, r1
    15ee:	e8 0f       	add	r30, r24
    15f0:	f1 1d       	adc	r31, r1
    15f2:	11 82       	std	Z+1, r1	; 0x01
    15f4:	10 82       	st	Z, r1
    15f6:	8f 5f       	subi	r24, 0xFF	; 255
    15f8:	f4 cf       	rjmp	.-24     	; 0x15e2 <_ZN18PololuQTRSensorsRC11readPrivateEPj+0x34>
    15fa:	84 b1       	in	r24, 0x04	; 4
    15fc:	f6 01       	movw	r30, r12
    15fe:	90 81       	ld	r25, Z
    1600:	89 2b       	or	r24, r25
    1602:	84 b9       	out	0x04, r24	; 4
    1604:	87 b1       	in	r24, 0x07	; 7
    1606:	f7 01       	movw	r30, r14
    1608:	90 81       	ld	r25, Z
    160a:	89 2b       	or	r24, r25
    160c:	87 b9       	out	0x07, r24	; 7
    160e:	8a b1       	in	r24, 0x0a	; 10
    1610:	f8 01       	movw	r30, r16
    1612:	90 81       	ld	r25, Z
    1614:	89 2b       	or	r24, r25
    1616:	8a b9       	out	0x0a, r24	; 10
    1618:	85 b1       	in	r24, 0x05	; 5
    161a:	f6 01       	movw	r30, r12
    161c:	90 81       	ld	r25, Z
    161e:	89 2b       	or	r24, r25
    1620:	85 b9       	out	0x05, r24	; 5
    1622:	88 b1       	in	r24, 0x08	; 8
    1624:	f7 01       	movw	r30, r14
    1626:	90 81       	ld	r25, Z
    1628:	89 2b       	or	r24, r25
    162a:	88 b9       	out	0x08, r24	; 8
    162c:	8b b1       	in	r24, 0x0b	; 11
    162e:	f8 01       	movw	r30, r16
    1630:	90 81       	ld	r25, Z
    1632:	89 2b       	or	r24, r25
    1634:	8b b9       	out	0x0b, r24	; 11
    1636:	8a e0       	ldi	r24, 0x0A	; 10
    1638:	90 e0       	ldi	r25, 0x00	; 0
    163a:	0e 94 e7 09 	call	0x13ce	; 0x13ce <delay_us>
    163e:	94 b1       	in	r25, 0x04	; 4
    1640:	f6 01       	movw	r30, r12
    1642:	80 81       	ld	r24, Z
    1644:	80 95       	com	r24
    1646:	89 23       	and	r24, r25
    1648:	84 b9       	out	0x04, r24	; 4
    164a:	97 b1       	in	r25, 0x07	; 7
    164c:	f7 01       	movw	r30, r14
    164e:	80 81       	ld	r24, Z
    1650:	80 95       	com	r24
    1652:	89 23       	and	r24, r25
    1654:	87 b9       	out	0x07, r24	; 7
    1656:	9a b1       	in	r25, 0x0a	; 10
    1658:	f8 01       	movw	r30, r16
    165a:	80 81       	ld	r24, Z
    165c:	80 95       	com	r24
    165e:	89 23       	and	r24, r25
    1660:	8a b9       	out	0x0a, r24	; 10
    1662:	95 b1       	in	r25, 0x05	; 5
    1664:	f6 01       	movw	r30, r12
    1666:	80 81       	ld	r24, Z
    1668:	80 95       	com	r24
    166a:	89 23       	and	r24, r25
    166c:	85 b9       	out	0x05, r24	; 5
    166e:	98 b1       	in	r25, 0x08	; 8
    1670:	f7 01       	movw	r30, r14
    1672:	80 81       	ld	r24, Z
    1674:	80 95       	com	r24
    1676:	89 23       	and	r24, r25
    1678:	88 b9       	out	0x08, r24	; 8
    167a:	9b b1       	in	r25, 0x0b	; 11
    167c:	f8 01       	movw	r30, r16
    167e:	80 81       	ld	r24, Z
    1680:	80 95       	com	r24
    1682:	89 23       	and	r24, r25
    1684:	8b b9       	out	0x0b, r24	; 11
    1686:	e0 90 b0 00 	lds	r14, 0x00B0	; 0x8000b0 <__TEXT_REGION_LENGTH__+0x7e00b0>
    168a:	d0 90 b1 00 	lds	r13, 0x00B1	; 0x8000b1 <__TEXT_REGION_LENGTH__+0x7e00b1>
    168e:	80 91 b0 00 	lds	r24, 0x00B0	; 0x8000b0 <__TEXT_REGION_LENGTH__+0x7e00b0>
    1692:	83 60       	ori	r24, 0x03	; 3
    1694:	80 93 b0 00 	sts	0x00B0, r24	; 0x8000b0 <__TEXT_REGION_LENGTH__+0x7e00b0>
    1698:	82 e0       	ldi	r24, 0x02	; 2
    169a:	80 93 b1 00 	sts	0x00B1, r24	; 0x8000b1 <__TEXT_REGION_LENGTH__+0x7e00b1>
    169e:	40 91 b2 00 	lds	r20, 0x00B2	; 0x8000b2 <__TEXT_REGION_LENGTH__+0x7e00b2>
    16a2:	80 e0       	ldi	r24, 0x00	; 0
    16a4:	90 e0       	ldi	r25, 0x00	; 0
    16a6:	2e 85       	ldd	r18, Y+14	; 0x0e
    16a8:	3f 85       	ldd	r19, Y+15	; 0x0f
    16aa:	82 17       	cp	r24, r18
    16ac:	93 07       	cpc	r25, r19
    16ae:	20 f5       	brcc	.+72     	; 0x16f8 <_ZN18PololuQTRSensorsRC11readPrivateEPj+0x14a>
    16b0:	c0 90 b2 00 	lds	r12, 0x00B2	; 0x8000b2 <__TEXT_REGION_LENGTH__+0x7e00b2>
    16b4:	2c 2d       	mov	r18, r12
    16b6:	24 1b       	sub	r18, r20
    16b8:	82 0f       	add	r24, r18
    16ba:	91 1d       	adc	r25, r1
    16bc:	03 b1       	in	r16, 0x03	; 3
    16be:	08 11       	cpse	r16, r8
    16c0:	32 c0       	rjmp	.+100    	; 0x1726 <_ZN18PololuQTRSensorsRC11readPrivateEPj+0x178>
    16c2:	f6 b0       	in	r15, 0x06	; 6
    16c4:	f7 10       	cpse	r15, r7
    16c6:	2f c0       	rjmp	.+94     	; 0x1726 <_ZN18PololuQTRSensorsRC11readPrivateEPj+0x178>
    16c8:	29 b1       	in	r18, 0x09	; 9
    16ca:	29 11       	cpse	r18, r9
    16cc:	2c c0       	rjmp	.+88     	; 0x1726 <_ZN18PololuQTRSensorsRC11readPrivateEPj+0x178>
    16ce:	10 c0       	rjmp	.+32     	; 0x16f0 <_ZN18PololuQTRSensorsRC11readPrivateEPj+0x142>
    16d0:	21 2f       	mov	r18, r17
    16d2:	30 e0       	ldi	r19, 0x00	; 0
    16d4:	a9 01       	movw	r20, r18
    16d6:	44 0f       	add	r20, r20
    16d8:	55 1f       	adc	r21, r21
    16da:	f5 01       	movw	r30, r10
    16dc:	e4 0f       	add	r30, r20
    16de:	f5 1f       	adc	r31, r21
    16e0:	60 81       	ld	r22, Z
    16e2:	71 81       	ldd	r23, Z+1	; 0x01
    16e4:	67 2b       	or	r22, r23
    16e6:	21 f1       	breq	.+72     	; 0x1730 <_ZN18PololuQTRSensorsRC11readPrivateEPj+0x182>
    16e8:	1f 5f       	subi	r17, 0xFF	; 255
    16ea:	28 85       	ldd	r18, Y+8	; 0x08
    16ec:	12 17       	cp	r17, r18
    16ee:	80 f3       	brcs	.-32     	; 0x16d0 <_ZN18PololuQTRSensorsRC11readPrivateEPj+0x122>
    16f0:	7f 2c       	mov	r7, r15
    16f2:	80 2e       	mov	r8, r16
    16f4:	4c 2d       	mov	r20, r12
    16f6:	d7 cf       	rjmp	.-82     	; 0x16a6 <_ZN18PololuQTRSensorsRC11readPrivateEPj+0xf8>
    16f8:	e0 92 b0 00 	sts	0x00B0, r14	; 0x8000b0 <__TEXT_REGION_LENGTH__+0x7e00b0>
    16fc:	d0 92 b1 00 	sts	0x00B1, r13	; 0x8000b1 <__TEXT_REGION_LENGTH__+0x7e00b1>
    1700:	20 e0       	ldi	r18, 0x00	; 0
    1702:	88 85       	ldd	r24, Y+8	; 0x08
    1704:	28 17       	cp	r18, r24
    1706:	30 f5       	brcc	.+76     	; 0x1754 <_ZN18PololuQTRSensorsRC11readPrivateEPj+0x1a6>
    1708:	f5 01       	movw	r30, r10
    170a:	e2 0f       	add	r30, r18
    170c:	f1 1d       	adc	r31, r1
    170e:	e2 0f       	add	r30, r18
    1710:	f1 1d       	adc	r31, r1
    1712:	80 81       	ld	r24, Z
    1714:	91 81       	ldd	r25, Z+1	; 0x01
    1716:	89 2b       	or	r24, r25
    1718:	21 f4       	brne	.+8      	; 0x1722 <_ZN18PololuQTRSensorsRC11readPrivateEPj+0x174>
    171a:	8e 85       	ldd	r24, Y+14	; 0x0e
    171c:	9f 85       	ldd	r25, Y+15	; 0x0f
    171e:	91 83       	std	Z+1, r25	; 0x01
    1720:	80 83       	st	Z, r24
    1722:	2f 5f       	subi	r18, 0xFF	; 255
    1724:	ee cf       	rjmp	.-36     	; 0x1702 <_ZN18PololuQTRSensorsRC11readPrivateEPj+0x154>
    1726:	03 b1       	in	r16, 0x03	; 3
    1728:	f6 b0       	in	r15, 0x06	; 6
    172a:	99 b0       	in	r9, 0x09	; 9
    172c:	10 e0       	ldi	r17, 0x00	; 0
    172e:	dd cf       	rjmp	.-70     	; 0x16ea <_ZN18PololuQTRSensorsRC11readPrivateEPj+0x13c>
    1730:	de 01       	movw	r26, r28
    1732:	a4 0f       	add	r26, r20
    1734:	b5 1f       	adc	r27, r21
    1736:	91 96       	adiw	r26, 0x21	; 33
    1738:	0d 90       	ld	r0, X+
    173a:	bc 91       	ld	r27, X
    173c:	a0 2d       	mov	r26, r0
    173e:	4c 91       	ld	r20, X
    1740:	de 01       	movw	r26, r28
    1742:	a2 0f       	add	r26, r18
    1744:	b3 1f       	adc	r27, r19
    1746:	51 96       	adiw	r26, 0x11	; 17
    1748:	2c 91       	ld	r18, X
    174a:	42 23       	and	r20, r18
    174c:	69 f6       	brne	.-102    	; 0x16e8 <_ZN18PololuQTRSensorsRC11readPrivateEPj+0x13a>
    174e:	91 83       	std	Z+1, r25	; 0x01
    1750:	80 83       	st	Z, r24
    1752:	ca cf       	rjmp	.-108    	; 0x16e8 <_ZN18PololuQTRSensorsRC11readPrivateEPj+0x13a>
    1754:	cd b7       	in	r28, 0x3d	; 61
    1756:	de b7       	in	r29, 0x3e	; 62
    1758:	ed e0       	ldi	r30, 0x0D	; 13
    175a:	0c 94 92 0f 	jmp	0x1f24	; 0x1f24 <__epilogue_restores__+0xa>

0000175e <_ZN22PololuQTRSensorsAnalog11readPrivateEPj>:
    175e:	ef 92       	push	r14
    1760:	ff 92       	push	r15
    1762:	0f 93       	push	r16
    1764:	1f 93       	push	r17
    1766:	cf 93       	push	r28
    1768:	df 93       	push	r29
    176a:	fc 01       	movw	r30, r24
    176c:	9b 01       	movw	r18, r22
    176e:	f0 90 7c 00 	lds	r15, 0x007C	; 0x80007c <__TEXT_REGION_LENGTH__+0x7e007c>
    1772:	00 91 7a 00 	lds	r16, 0x007A	; 0x80007a <__TEXT_REGION_LENGTH__+0x7e007a>
    1776:	47 b1       	in	r20, 0x07	; 7
    1778:	18 b1       	in	r17, 0x08	; 8
    177a:	80 91 7a 00 	lds	r24, 0x007A	; 0x80007a <__TEXT_REGION_LENGTH__+0x7e007a>
    177e:	86 fd       	sbrc	r24, 6
    1780:	fc cf       	rjmp	.-8      	; 0x177a <_ZN22PololuQTRSensorsAnalog11readPrivateEPj+0x1c>
    1782:	80 e0       	ldi	r24, 0x00	; 0
    1784:	90 85       	ldd	r25, Z+8	; 0x08
    1786:	89 17       	cp	r24, r25
    1788:	48 f4       	brcc	.+18     	; 0x179c <_ZN22PololuQTRSensorsAnalog11readPrivateEPj+0x3e>
    178a:	d9 01       	movw	r26, r18
    178c:	a8 0f       	add	r26, r24
    178e:	b1 1d       	adc	r27, r1
    1790:	a8 0f       	add	r26, r24
    1792:	b1 1d       	adc	r27, r1
    1794:	1d 92       	st	X+, r1
    1796:	1c 92       	st	X, r1
    1798:	8f 5f       	subi	r24, 0xFF	; 255
    179a:	f4 cf       	rjmp	.-24     	; 0x1784 <_ZN22PololuQTRSensorsAnalog11readPrivateEPj+0x26>
    179c:	97 b1       	in	r25, 0x07	; 7
    179e:	82 a1       	ldd	r24, Z+34	; 0x22
    17a0:	80 95       	com	r24
    17a2:	89 23       	and	r24, r25
    17a4:	87 b9       	out	0x07, r24	; 7
    17a6:	98 b1       	in	r25, 0x08	; 8
    17a8:	82 a1       	ldd	r24, Z+34	; 0x22
    17aa:	80 95       	com	r24
    17ac:	89 23       	and	r24, r25
    17ae:	88 b9       	out	0x08, r24	; 8
    17b0:	87 e8       	ldi	r24, 0x87	; 135
    17b2:	80 93 7a 00 	sts	0x007A, r24	; 0x80007a <__TEXT_REGION_LENGTH__+0x7e007a>
    17b6:	e1 2c       	mov	r14, r1
    17b8:	81 a1       	ldd	r24, Z+33	; 0x21
    17ba:	e8 16       	cp	r14, r24
    17bc:	10 f0       	brcs	.+4      	; 0x17c2 <_ZN22PololuQTRSensorsAnalog11readPrivateEPj+0x64>
    17be:	e1 2c       	mov	r14, r1
    17c0:	29 c0       	rjmp	.+82     	; 0x1814 <_ZN22PololuQTRSensorsAnalog11readPrivateEPj+0xb6>
    17c2:	50 e0       	ldi	r21, 0x00	; 0
    17c4:	80 85       	ldd	r24, Z+8	; 0x08
    17c6:	58 17       	cp	r21, r24
    17c8:	18 f5       	brcc	.+70     	; 0x1810 <_ZN22PololuQTRSensorsAnalog11readPrivateEPj+0xb2>
    17ca:	a5 2f       	mov	r26, r21
    17cc:	b0 e0       	ldi	r27, 0x00	; 0
    17ce:	ef 01       	movw	r28, r30
    17d0:	ca 0f       	add	r28, r26
    17d2:	db 1f       	adc	r29, r27
    17d4:	89 89       	ldd	r24, Y+17	; 0x11
    17d6:	80 64       	ori	r24, 0x40	; 64
    17d8:	80 93 7c 00 	sts	0x007C, r24	; 0x80007c <__TEXT_REGION_LENGTH__+0x7e007c>
    17dc:	80 91 7a 00 	lds	r24, 0x007A	; 0x80007a <__TEXT_REGION_LENGTH__+0x7e007a>
    17e0:	80 64       	ori	r24, 0x40	; 64
    17e2:	80 93 7a 00 	sts	0x007A, r24	; 0x80007a <__TEXT_REGION_LENGTH__+0x7e007a>
    17e6:	80 91 7a 00 	lds	r24, 0x007A	; 0x80007a <__TEXT_REGION_LENGTH__+0x7e007a>
    17ea:	86 fd       	sbrc	r24, 6
    17ec:	fc cf       	rjmp	.-8      	; 0x17e6 <_ZN22PololuQTRSensorsAnalog11readPrivateEPj+0x88>
    17ee:	60 91 78 00 	lds	r22, 0x0078	; 0x800078 <__TEXT_REGION_LENGTH__+0x7e0078>
    17f2:	70 91 79 00 	lds	r23, 0x0079	; 0x800079 <__TEXT_REGION_LENGTH__+0x7e0079>
    17f6:	aa 0f       	add	r26, r26
    17f8:	bb 1f       	adc	r27, r27
    17fa:	a2 0f       	add	r26, r18
    17fc:	b3 1f       	adc	r27, r19
    17fe:	8d 91       	ld	r24, X+
    1800:	9c 91       	ld	r25, X
    1802:	11 97       	sbiw	r26, 0x01	; 1
    1804:	86 0f       	add	r24, r22
    1806:	97 1f       	adc	r25, r23
    1808:	8d 93       	st	X+, r24
    180a:	9c 93       	st	X, r25
    180c:	5f 5f       	subi	r21, 0xFF	; 255
    180e:	da cf       	rjmp	.-76     	; 0x17c4 <_ZN22PololuQTRSensorsAnalog11readPrivateEPj+0x66>
    1810:	e3 94       	inc	r14
    1812:	d2 cf       	rjmp	.-92     	; 0x17b8 <_ZN22PololuQTRSensorsAnalog11readPrivateEPj+0x5a>
    1814:	80 85       	ldd	r24, Z+8	; 0x08
    1816:	e8 16       	cp	r14, r24
    1818:	a0 f4       	brcc	.+40     	; 0x1842 <_ZN22PololuQTRSensorsAnalog11readPrivateEPj+0xe4>
    181a:	e9 01       	movw	r28, r18
    181c:	ce 0d       	add	r28, r14
    181e:	d1 1d       	adc	r29, r1
    1820:	ce 0d       	add	r28, r14
    1822:	d1 1d       	adc	r29, r1
    1824:	61 a1       	ldd	r22, Z+33	; 0x21
    1826:	70 e0       	ldi	r23, 0x00	; 0
    1828:	cb 01       	movw	r24, r22
    182a:	95 95       	asr	r25
    182c:	87 95       	ror	r24
    182e:	a8 81       	ld	r26, Y
    1830:	b9 81       	ldd	r27, Y+1	; 0x01
    1832:	8a 0f       	add	r24, r26
    1834:	9b 1f       	adc	r25, r27
    1836:	0e 94 fa 0e 	call	0x1df4	; 0x1df4 <__udivmodhi4>
    183a:	79 83       	std	Y+1, r23	; 0x01
    183c:	68 83       	st	Y, r22
    183e:	e3 94       	inc	r14
    1840:	e9 cf       	rjmp	.-46     	; 0x1814 <_ZN22PololuQTRSensorsAnalog11readPrivateEPj+0xb6>
    1842:	f0 92 7c 00 	sts	0x007C, r15	; 0x80007c <__TEXT_REGION_LENGTH__+0x7e007c>
    1846:	00 93 7a 00 	sts	0x007A, r16	; 0x80007a <__TEXT_REGION_LENGTH__+0x7e007a>
    184a:	18 b9       	out	0x08, r17	; 8
    184c:	47 b9       	out	0x07, r20	; 7
    184e:	cd b7       	in	r28, 0x3d	; 61
    1850:	de b7       	in	r29, 0x3e	; 62
    1852:	e6 e0       	ldi	r30, 0x06	; 6
    1854:	0c 94 99 0f 	jmp	0x1f32	; 0x1f32 <__epilogue_restores__+0x18>

00001858 <_ZN16PololuQTRSensors4readEPjh>:
    1858:	a0 e2       	ldi	r26, 0x20	; 32
    185a:	b0 e0       	ldi	r27, 0x00	; 0
    185c:	e2 e3       	ldi	r30, 0x32	; 50
    185e:	fc e0       	ldi	r31, 0x0C	; 12
    1860:	0c 94 7c 0f 	jmp	0x1ef8	; 0x1ef8 <__prologue_saves__+0x16>
    1864:	8c 01       	movw	r16, r24
    1866:	7b 01       	movw	r14, r22
    1868:	d4 2e       	mov	r13, r20
    186a:	8f ef       	ldi	r24, 0xFF	; 255
    186c:	84 0f       	add	r24, r20
    186e:	82 30       	cpi	r24, 0x02	; 2
    1870:	18 f4       	brcc	.+6      	; 0x1878 <_ZN16PololuQTRSensors4readEPjh+0x20>
    1872:	c8 01       	movw	r24, r16
    1874:	0e 94 6e 0a 	call	0x14dc	; 0x14dc <_ZN16PololuQTRSensors10emittersOnEv>
    1878:	d8 01       	movw	r26, r16
    187a:	50 96       	adiw	r26, 0x10	; 16
    187c:	8c 91       	ld	r24, X
    187e:	b7 01       	movw	r22, r14
    1880:	81 11       	cpse	r24, r1
    1882:	10 c0       	rjmp	.+32     	; 0x18a4 <_ZN16PololuQTRSensors4readEPjh+0x4c>
    1884:	c8 01       	movw	r24, r16
    1886:	0e 94 d7 0a 	call	0x15ae	; 0x15ae <_ZN18PololuQTRSensorsRC11readPrivateEPj>
    188a:	c8 01       	movw	r24, r16
    188c:	0e 94 59 0a 	call	0x14b2	; 0x14b2 <_ZN16PololuQTRSensors11emittersOffEv>
    1890:	b2 e0       	ldi	r27, 0x02	; 2
    1892:	db 12       	cpse	r13, r27
    1894:	3a c0       	rjmp	.+116    	; 0x190a <_ZN16PololuQTRSensors4readEPjh+0xb2>
    1896:	be 01       	movw	r22, r28
    1898:	6f 5f       	subi	r22, 0xFF	; 255
    189a:	7f 4f       	sbci	r23, 0xFF	; 255
    189c:	c8 01       	movw	r24, r16
    189e:	0e 94 d7 0a 	call	0x15ae	; 0x15ae <_ZN18PololuQTRSensorsRC11readPrivateEPj>
    18a2:	0f c0       	rjmp	.+30     	; 0x18c2 <_ZN16PololuQTRSensors4readEPjh+0x6a>
    18a4:	c8 01       	movw	r24, r16
    18a6:	0e 94 af 0b 	call	0x175e	; 0x175e <_ZN22PololuQTRSensorsAnalog11readPrivateEPj>
    18aa:	c8 01       	movw	r24, r16
    18ac:	0e 94 59 0a 	call	0x14b2	; 0x14b2 <_ZN16PololuQTRSensors11emittersOffEv>
    18b0:	e2 e0       	ldi	r30, 0x02	; 2
    18b2:	de 12       	cpse	r13, r30
    18b4:	2a c0       	rjmp	.+84     	; 0x190a <_ZN16PololuQTRSensors4readEPjh+0xb2>
    18b6:	be 01       	movw	r22, r28
    18b8:	6f 5f       	subi	r22, 0xFF	; 255
    18ba:	7f 4f       	sbci	r23, 0xFF	; 255
    18bc:	c8 01       	movw	r24, r16
    18be:	0e 94 af 0b 	call	0x175e	; 0x175e <_ZN22PololuQTRSensorsAnalog11readPrivateEPj>
    18c2:	40 e0       	ldi	r20, 0x00	; 0
    18c4:	f8 01       	movw	r30, r16
    18c6:	80 85       	ldd	r24, Z+8	; 0x08
    18c8:	48 17       	cp	r20, r24
    18ca:	f8 f4       	brcc	.+62     	; 0x190a <_ZN16PololuQTRSensors4readEPjh+0xb2>
    18cc:	84 2f       	mov	r24, r20
    18ce:	90 e0       	ldi	r25, 0x00	; 0
    18d0:	88 0f       	add	r24, r24
    18d2:	99 1f       	adc	r25, r25
    18d4:	f7 01       	movw	r30, r14
    18d6:	e8 0f       	add	r30, r24
    18d8:	f9 1f       	adc	r31, r25
    18da:	21 e0       	ldi	r18, 0x01	; 1
    18dc:	30 e0       	ldi	r19, 0x00	; 0
    18de:	2c 0f       	add	r18, r28
    18e0:	3d 1f       	adc	r19, r29
    18e2:	82 0f       	add	r24, r18
    18e4:	93 1f       	adc	r25, r19
    18e6:	d8 01       	movw	r26, r16
    18e8:	1e 96       	adiw	r26, 0x0e	; 14
    18ea:	2d 91       	ld	r18, X+
    18ec:	3c 91       	ld	r19, X
    18ee:	1f 97       	sbiw	r26, 0x0f	; 15
    18f0:	dc 01       	movw	r26, r24
    18f2:	8d 91       	ld	r24, X+
    18f4:	9c 91       	ld	r25, X
    18f6:	28 1b       	sub	r18, r24
    18f8:	39 0b       	sbc	r19, r25
    18fa:	80 81       	ld	r24, Z
    18fc:	91 81       	ldd	r25, Z+1	; 0x01
    18fe:	82 0f       	add	r24, r18
    1900:	93 1f       	adc	r25, r19
    1902:	91 83       	std	Z+1, r25	; 0x01
    1904:	80 83       	st	Z, r24
    1906:	4f 5f       	subi	r20, 0xFF	; 255
    1908:	dd cf       	rjmp	.-70     	; 0x18c4 <_ZN16PololuQTRSensors4readEPjh+0x6c>
    190a:	a0 96       	adiw	r28, 0x20	; 32
    190c:	e7 e0       	ldi	r30, 0x07	; 7
    190e:	0c 94 98 0f 	jmp	0x1f30	; 0x1f30 <__epilogue_restores__+0x16>

00001912 <_ZN16PololuQTRSensors16calibrateOnOrOffEPPjS1_h>:
    1912:	2f 92       	push	r2
    1914:	3f 92       	push	r3
    1916:	5f 92       	push	r5
    1918:	6f 92       	push	r6
    191a:	7f 92       	push	r7
    191c:	8f 92       	push	r8
    191e:	9f 92       	push	r9
    1920:	af 92       	push	r10
    1922:	bf 92       	push	r11
    1924:	cf 92       	push	r12
    1926:	df 92       	push	r13
    1928:	ef 92       	push	r14
    192a:	ff 92       	push	r15
    192c:	0f 93       	push	r16
    192e:	1f 93       	push	r17
    1930:	cf 93       	push	r28
    1932:	df 93       	push	r29
    1934:	cd b7       	in	r28, 0x3d	; 61
    1936:	de b7       	in	r29, 0x3e	; 62
    1938:	c0 56       	subi	r28, 0x60	; 96
    193a:	d1 09       	sbc	r29, r1
    193c:	0f b6       	in	r0, 0x3f	; 63
    193e:	f8 94       	cli
    1940:	de bf       	out	0x3e, r29	; 62
    1942:	0f be       	out	0x3f, r0	; 63
    1944:	cd bf       	out	0x3d, r28	; 61
    1946:	8c 01       	movw	r16, r24
    1948:	4b 01       	movw	r8, r22
    194a:	5a 01       	movw	r10, r20
    194c:	52 2e       	mov	r5, r18
    194e:	da 01       	movw	r26, r20
    1950:	8d 91       	ld	r24, X+
    1952:	9c 91       	ld	r25, X
    1954:	89 2b       	or	r24, r25
    1956:	31 f0       	breq	.+12     	; 0x1964 <_ZN16PololuQTRSensors16calibrateOnOrOffEPPjS1_h+0x52>
    1958:	f4 01       	movw	r30, r8
    195a:	80 81       	ld	r24, Z
    195c:	91 81       	ldd	r25, Z+1	; 0x01
    195e:	89 2b       	or	r24, r25
    1960:	f1 f4       	brne	.+60     	; 0x199e <_ZN16PololuQTRSensors16calibrateOnOrOffEPPjS1_h+0x8c>
    1962:	24 c0       	rjmp	.+72     	; 0x19ac <_ZN16PololuQTRSensors16calibrateOnOrOffEPPjS1_h+0x9a>
    1964:	d8 01       	movw	r26, r16
    1966:	18 96       	adiw	r26, 0x08	; 8
    1968:	8c 91       	ld	r24, X
    196a:	90 e0       	ldi	r25, 0x00	; 0
    196c:	88 0f       	add	r24, r24
    196e:	99 1f       	adc	r25, r25
    1970:	0e 94 ae 0f 	call	0x1f5c	; 0x1f5c <malloc>
    1974:	f5 01       	movw	r30, r10
    1976:	91 83       	std	Z+1, r25	; 0x01
    1978:	80 83       	st	Z, r24
    197a:	00 97       	sbiw	r24, 0x00	; 0
    197c:	09 f4       	brne	.+2      	; 0x1980 <_ZN16PololuQTRSensors16calibrateOnOrOffEPPjS1_h+0x6e>
    197e:	b1 c0       	rjmp	.+354    	; 0x1ae2 <_ZN16PololuQTRSensors16calibrateOnOrOffEPPjS1_h+0x1d0>
    1980:	fc 01       	movw	r30, r24
    1982:	20 e0       	ldi	r18, 0x00	; 0
    1984:	30 e0       	ldi	r19, 0x00	; 0
    1986:	d8 01       	movw	r26, r16
    1988:	18 96       	adiw	r26, 0x08	; 8
    198a:	8c 91       	ld	r24, X
    198c:	90 e0       	ldi	r25, 0x00	; 0
    198e:	28 17       	cp	r18, r24
    1990:	39 07       	cpc	r19, r25
    1992:	14 f7       	brge	.-60     	; 0x1958 <_ZN16PololuQTRSensors16calibrateOnOrOffEPPjS1_h+0x46>
    1994:	11 92       	st	Z+, r1
    1996:	11 92       	st	Z+, r1
    1998:	2f 5f       	subi	r18, 0xFF	; 255
    199a:	3f 4f       	sbci	r19, 0xFF	; 255
    199c:	f4 cf       	rjmp	.-24     	; 0x1986 <_ZN16PololuQTRSensors16calibrateOnOrOffEPPjS1_h+0x74>
    199e:	e1 2c       	mov	r14, r1
    19a0:	f1 2c       	mov	r15, r1
    19a2:	6e 01       	movw	r12, r28
    19a4:	b1 e2       	ldi	r27, 0x21	; 33
    19a6:	cb 0e       	add	r12, r27
    19a8:	d1 1c       	adc	r13, r1
    19aa:	21 c0       	rjmp	.+66     	; 0x19ee <_ZN16PololuQTRSensors16calibrateOnOrOffEPPjS1_h+0xdc>
    19ac:	f8 01       	movw	r30, r16
    19ae:	80 85       	ldd	r24, Z+8	; 0x08
    19b0:	90 e0       	ldi	r25, 0x00	; 0
    19b2:	88 0f       	add	r24, r24
    19b4:	99 1f       	adc	r25, r25
    19b6:	0e 94 ae 0f 	call	0x1f5c	; 0x1f5c <malloc>
    19ba:	d4 01       	movw	r26, r8
    19bc:	8d 93       	st	X+, r24
    19be:	9c 93       	st	X, r25
    19c0:	00 97       	sbiw	r24, 0x00	; 0
    19c2:	09 f4       	brne	.+2      	; 0x19c6 <_ZN16PololuQTRSensors16calibrateOnOrOffEPPjS1_h+0xb4>
    19c4:	8e c0       	rjmp	.+284    	; 0x1ae2 <_ZN16PololuQTRSensors16calibrateOnOrOffEPPjS1_h+0x1d0>
    19c6:	fc 01       	movw	r30, r24
    19c8:	20 e0       	ldi	r18, 0x00	; 0
    19ca:	30 e0       	ldi	r19, 0x00	; 0
    19cc:	d8 01       	movw	r26, r16
    19ce:	18 96       	adiw	r26, 0x08	; 8
    19d0:	8c 91       	ld	r24, X
    19d2:	90 e0       	ldi	r25, 0x00	; 0
    19d4:	28 17       	cp	r18, r24
    19d6:	39 07       	cpc	r19, r25
    19d8:	14 f7       	brge	.-60     	; 0x199e <_ZN16PololuQTRSensors16calibrateOnOrOffEPPjS1_h+0x8c>
    19da:	d8 01       	movw	r26, r16
    19dc:	1e 96       	adiw	r26, 0x0e	; 14
    19de:	8d 91       	ld	r24, X+
    19e0:	9c 91       	ld	r25, X
    19e2:	1f 97       	sbiw	r26, 0x0f	; 15
    19e4:	81 93       	st	Z+, r24
    19e6:	91 93       	st	Z+, r25
    19e8:	2f 5f       	subi	r18, 0xFF	; 255
    19ea:	3f 4f       	sbci	r19, 0xFF	; 255
    19ec:	ef cf       	rjmp	.-34     	; 0x19cc <_ZN16PololuQTRSensors16calibrateOnOrOffEPPjS1_h+0xba>
    19ee:	45 2d       	mov	r20, r5
    19f0:	be 01       	movw	r22, r28
    19f2:	6f 5b       	subi	r22, 0xBF	; 191
    19f4:	7f 4f       	sbci	r23, 0xFF	; 255
    19f6:	c8 01       	movw	r24, r16
    19f8:	0e 94 2c 0c 	call	0x1858	; 0x1858 <_ZN16PololuQTRSensors4readEPjh>
    19fc:	f8 01       	movw	r30, r16
    19fe:	60 84       	ldd	r6, Z+8	; 0x08
    1a00:	71 2c       	mov	r7, r1
    1a02:	fe 01       	movw	r30, r28
    1a04:	ef 5b       	subi	r30, 0xBF	; 191
    1a06:	ff 4f       	sbci	r31, 0xFF	; 255
    1a08:	c6 01       	movw	r24, r12
    1a0a:	9e 01       	movw	r18, r28
    1a0c:	2f 5f       	subi	r18, 0xFF	; 255
    1a0e:	3f 4f       	sbci	r19, 0xFF	; 255
    1a10:	19 01       	movw	r2, r18
    1a12:	20 e0       	ldi	r18, 0x00	; 0
    1a14:	30 e0       	ldi	r19, 0x00	; 0
    1a16:	26 15       	cp	r18, r6
    1a18:	37 05       	cpc	r19, r7
    1a1a:	4c f5       	brge	.+82     	; 0x1a6e <_ZN16PololuQTRSensors16calibrateOnOrOffEPPjS1_h+0x15c>
    1a1c:	e1 14       	cp	r14, r1
    1a1e:	f1 04       	cpc	r15, r1
    1a20:	89 f0       	breq	.+34     	; 0x1a44 <_ZN16PololuQTRSensors16calibrateOnOrOffEPPjS1_h+0x132>
    1a22:	dc 01       	movw	r26, r24
    1a24:	6d 91       	ld	r22, X+
    1a26:	7c 91       	ld	r23, X
    1a28:	40 81       	ld	r20, Z
    1a2a:	51 81       	ldd	r21, Z+1	; 0x01
    1a2c:	64 17       	cp	r22, r20
    1a2e:	75 07       	cpc	r23, r21
    1a30:	48 f0       	brcs	.+18     	; 0x1a44 <_ZN16PololuQTRSensors16calibrateOnOrOffEPPjS1_h+0x132>
    1a32:	d1 01       	movw	r26, r2
    1a34:	6d 91       	ld	r22, X+
    1a36:	7c 91       	ld	r23, X
    1a38:	40 81       	ld	r20, Z
    1a3a:	51 81       	ldd	r21, Z+1	; 0x01
    1a3c:	46 17       	cp	r20, r22
    1a3e:	57 07       	cpc	r21, r23
    1a40:	48 f0       	brcs	.+18     	; 0x1a54 <_ZN16PololuQTRSensors16calibrateOnOrOffEPPjS1_h+0x142>
    1a42:	0d c0       	rjmp	.+26     	; 0x1a5e <_ZN16PololuQTRSensors16calibrateOnOrOffEPPjS1_h+0x14c>
    1a44:	40 81       	ld	r20, Z
    1a46:	51 81       	ldd	r21, Z+1	; 0x01
    1a48:	dc 01       	movw	r26, r24
    1a4a:	4d 93       	st	X+, r20
    1a4c:	5c 93       	st	X, r21
    1a4e:	e1 14       	cp	r14, r1
    1a50:	f1 04       	cpc	r15, r1
    1a52:	79 f7       	brne	.-34     	; 0x1a32 <_ZN16PololuQTRSensors16calibrateOnOrOffEPPjS1_h+0x120>
    1a54:	40 81       	ld	r20, Z
    1a56:	51 81       	ldd	r21, Z+1	; 0x01
    1a58:	d1 01       	movw	r26, r2
    1a5a:	4d 93       	st	X+, r20
    1a5c:	5c 93       	st	X, r21
    1a5e:	2f 5f       	subi	r18, 0xFF	; 255
    1a60:	3f 4f       	sbci	r19, 0xFF	; 255
    1a62:	b2 e0       	ldi	r27, 0x02	; 2
    1a64:	2b 0e       	add	r2, r27
    1a66:	31 1c       	adc	r3, r1
    1a68:	32 96       	adiw	r30, 0x02	; 2
    1a6a:	02 96       	adiw	r24, 0x02	; 2
    1a6c:	d4 cf       	rjmp	.-88     	; 0x1a16 <_ZN16PololuQTRSensors16calibrateOnOrOffEPPjS1_h+0x104>
    1a6e:	ef ef       	ldi	r30, 0xFF	; 255
    1a70:	ee 1a       	sub	r14, r30
    1a72:	fe 0a       	sbc	r15, r30
    1a74:	fa e0       	ldi	r31, 0x0A	; 10
    1a76:	ef 16       	cp	r14, r31
    1a78:	f1 04       	cpc	r15, r1
    1a7a:	09 f0       	breq	.+2      	; 0x1a7e <_ZN16PololuQTRSensors16calibrateOnOrOffEPPjS1_h+0x16c>
    1a7c:	b8 cf       	rjmp	.-144    	; 0x19ee <_ZN16PololuQTRSensors16calibrateOnOrOffEPPjS1_h+0xdc>
    1a7e:	9e 01       	movw	r18, r28
    1a80:	2f 5f       	subi	r18, 0xFF	; 255
    1a82:	3f 4f       	sbci	r19, 0xFF	; 255
    1a84:	79 01       	movw	r14, r18
    1a86:	36 01       	movw	r6, r12
    1a88:	80 e0       	ldi	r24, 0x00	; 0
    1a8a:	90 e0       	ldi	r25, 0x00	; 0
    1a8c:	f8 01       	movw	r30, r16
    1a8e:	20 85       	ldd	r18, Z+8	; 0x08
    1a90:	30 e0       	ldi	r19, 0x00	; 0
    1a92:	82 17       	cp	r24, r18
    1a94:	93 07       	cpc	r25, r19
    1a96:	2c f5       	brge	.+74     	; 0x1ae2 <_ZN16PololuQTRSensors16calibrateOnOrOffEPPjS1_h+0x1d0>
    1a98:	d7 01       	movw	r26, r14
    1a9a:	2d 91       	ld	r18, X+
    1a9c:	3d 91       	ld	r19, X+
    1a9e:	7d 01       	movw	r14, r26
    1aa0:	b3 01       	movw	r22, r6
    1aa2:	6c 19       	sub	r22, r12
    1aa4:	7d 09       	sbc	r23, r13
    1aa6:	d5 01       	movw	r26, r10
    1aa8:	ed 91       	ld	r30, X+
    1aaa:	fc 91       	ld	r31, X
    1aac:	e6 0f       	add	r30, r22
    1aae:	f7 1f       	adc	r31, r23
    1ab0:	40 81       	ld	r20, Z
    1ab2:	51 81       	ldd	r21, Z+1	; 0x01
    1ab4:	42 17       	cp	r20, r18
    1ab6:	53 07       	cpc	r21, r19
    1ab8:	10 f4       	brcc	.+4      	; 0x1abe <_ZN16PololuQTRSensors16calibrateOnOrOffEPPjS1_h+0x1ac>
    1aba:	31 83       	std	Z+1, r19	; 0x01
    1abc:	20 83       	st	Z, r18
    1abe:	f3 01       	movw	r30, r6
    1ac0:	21 91       	ld	r18, Z+
    1ac2:	31 91       	ld	r19, Z+
    1ac4:	3f 01       	movw	r6, r30
    1ac6:	d4 01       	movw	r26, r8
    1ac8:	ed 91       	ld	r30, X+
    1aca:	fc 91       	ld	r31, X
    1acc:	e6 0f       	add	r30, r22
    1ace:	f7 1f       	adc	r31, r23
    1ad0:	40 81       	ld	r20, Z
    1ad2:	51 81       	ldd	r21, Z+1	; 0x01
    1ad4:	24 17       	cp	r18, r20
    1ad6:	35 07       	cpc	r19, r21
    1ad8:	10 f4       	brcc	.+4      	; 0x1ade <_ZN16PololuQTRSensors16calibrateOnOrOffEPPjS1_h+0x1cc>
    1ada:	31 83       	std	Z+1, r19	; 0x01
    1adc:	20 83       	st	Z, r18
    1ade:	01 96       	adiw	r24, 0x01	; 1
    1ae0:	d5 cf       	rjmp	.-86     	; 0x1a8c <_ZN16PololuQTRSensors16calibrateOnOrOffEPPjS1_h+0x17a>
    1ae2:	c0 5a       	subi	r28, 0xA0	; 160
    1ae4:	df 4f       	sbci	r29, 0xFF	; 255
    1ae6:	0f b6       	in	r0, 0x3f	; 63
    1ae8:	f8 94       	cli
    1aea:	de bf       	out	0x3e, r29	; 62
    1aec:	0f be       	out	0x3f, r0	; 63
    1aee:	cd bf       	out	0x3d, r28	; 61
    1af0:	df 91       	pop	r29
    1af2:	cf 91       	pop	r28
    1af4:	1f 91       	pop	r17
    1af6:	0f 91       	pop	r16
    1af8:	ff 90       	pop	r15
    1afa:	ef 90       	pop	r14
    1afc:	df 90       	pop	r13
    1afe:	cf 90       	pop	r12
    1b00:	bf 90       	pop	r11
    1b02:	af 90       	pop	r10
    1b04:	9f 90       	pop	r9
    1b06:	8f 90       	pop	r8
    1b08:	7f 90       	pop	r7
    1b0a:	6f 90       	pop	r6
    1b0c:	5f 90       	pop	r5
    1b0e:	3f 90       	pop	r3
    1b10:	2f 90       	pop	r2
    1b12:	08 95       	ret

00001b14 <_ZN16PololuQTRSensors9calibrateEh>:
    1b14:	1f 93       	push	r17
    1b16:	cf 93       	push	r28
    1b18:	df 93       	push	r29
    1b1a:	ec 01       	movw	r28, r24
    1b1c:	16 2f       	mov	r17, r22
    1b1e:	8f ef       	ldi	r24, 0xFF	; 255
    1b20:	86 0f       	add	r24, r22
    1b22:	82 30       	cpi	r24, 0x02	; 2
    1b24:	18 f0       	brcs	.+6      	; 0x1b2c <_ZN16PololuQTRSensors9calibrateEh+0x18>
    1b26:	66 23       	and	r22, r22
    1b28:	59 f0       	breq	.+22     	; 0x1b40 <_ZN16PololuQTRSensors9calibrateEh+0x2c>
    1b2a:	14 c0       	rjmp	.+40     	; 0x1b54 <_ZN16PololuQTRSensors9calibrateEh+0x40>
    1b2c:	21 e0       	ldi	r18, 0x01	; 1
    1b2e:	ae 01       	movw	r20, r28
    1b30:	4e 5f       	subi	r20, 0xFE	; 254
    1b32:	5f 4f       	sbci	r21, 0xFF	; 255
    1b34:	be 01       	movw	r22, r28
    1b36:	ce 01       	movw	r24, r28
    1b38:	0e 94 89 0c 	call	0x1912	; 0x1912 <_ZN16PololuQTRSensors16calibrateOnOrOffEPPjS1_h>
    1b3c:	12 30       	cpi	r17, 0x02	; 2
    1b3e:	51 f4       	brne	.+20     	; 0x1b54 <_ZN16PololuQTRSensors9calibrateEh+0x40>
    1b40:	ae 01       	movw	r20, r28
    1b42:	4a 5f       	subi	r20, 0xFA	; 250
    1b44:	5f 4f       	sbci	r21, 0xFF	; 255
    1b46:	be 01       	movw	r22, r28
    1b48:	6c 5f       	subi	r22, 0xFC	; 252
    1b4a:	7f 4f       	sbci	r23, 0xFF	; 255
    1b4c:	20 e0       	ldi	r18, 0x00	; 0
    1b4e:	ce 01       	movw	r24, r28
    1b50:	0e 94 89 0c 	call	0x1912	; 0x1912 <_ZN16PololuQTRSensors16calibrateOnOrOffEPPjS1_h>
    1b54:	df 91       	pop	r29
    1b56:	cf 91       	pop	r28
    1b58:	1f 91       	pop	r17
    1b5a:	08 95       	ret

00001b5c <_ZN16PololuQTRSensors14readCalibratedEPjh>:
    1b5c:	a0 e0       	ldi	r26, 0x00	; 0
    1b5e:	b0 e0       	ldi	r27, 0x00	; 0
    1b60:	e4 eb       	ldi	r30, 0xB4	; 180
    1b62:	fd e0       	ldi	r31, 0x0D	; 13
    1b64:	0c 94 7a 0f 	jmp	0x1ef4	; 0x1ef4 <__prologue_saves__+0x12>
    1b68:	ec 01       	movw	r28, r24
    1b6a:	8b 01       	movw	r16, r22
    1b6c:	b4 2e       	mov	r11, r20
    1b6e:	84 2f       	mov	r24, r20
    1b70:	8d 7f       	andi	r24, 0xFD	; 253
    1b72:	51 f4       	brne	.+20     	; 0x1b88 <_ZN16PololuQTRSensors14readCalibratedEPjh+0x2c>
    1b74:	8c 81       	ldd	r24, Y+4	; 0x04
    1b76:	9d 81       	ldd	r25, Y+5	; 0x05
    1b78:	89 2b       	or	r24, r25
    1b7a:	09 f4       	brne	.+2      	; 0x1b7e <_ZN16PololuQTRSensors14readCalibratedEPjh+0x22>
    1b7c:	97 c0       	rjmp	.+302    	; 0x1cac <_ZN16PololuQTRSensors14readCalibratedEPjh+0x150>
    1b7e:	8e 81       	ldd	r24, Y+6	; 0x06
    1b80:	9f 81       	ldd	r25, Y+7	; 0x07
    1b82:	89 2b       	or	r24, r25
    1b84:	09 f4       	brne	.+2      	; 0x1b88 <_ZN16PololuQTRSensors14readCalibratedEPjh+0x2c>
    1b86:	92 c0       	rjmp	.+292    	; 0x1cac <_ZN16PololuQTRSensors14readCalibratedEPjh+0x150>
    1b88:	8f ef       	ldi	r24, 0xFF	; 255
    1b8a:	8b 0d       	add	r24, r11
    1b8c:	82 30       	cpi	r24, 0x02	; 2
    1b8e:	50 f4       	brcc	.+20     	; 0x1ba4 <_ZN16PololuQTRSensors14readCalibratedEPjh+0x48>
    1b90:	88 81       	ld	r24, Y
    1b92:	99 81       	ldd	r25, Y+1	; 0x01
    1b94:	89 2b       	or	r24, r25
    1b96:	09 f4       	brne	.+2      	; 0x1b9a <_ZN16PololuQTRSensors14readCalibratedEPjh+0x3e>
    1b98:	89 c0       	rjmp	.+274    	; 0x1cac <_ZN16PololuQTRSensors14readCalibratedEPjh+0x150>
    1b9a:	8a 81       	ldd	r24, Y+2	; 0x02
    1b9c:	9b 81       	ldd	r25, Y+3	; 0x03
    1b9e:	89 2b       	or	r24, r25
    1ba0:	09 f4       	brne	.+2      	; 0x1ba4 <_ZN16PololuQTRSensors14readCalibratedEPjh+0x48>
    1ba2:	84 c0       	rjmp	.+264    	; 0x1cac <_ZN16PololuQTRSensors14readCalibratedEPjh+0x150>
    1ba4:	4b 2d       	mov	r20, r11
    1ba6:	b8 01       	movw	r22, r16
    1ba8:	ce 01       	movw	r24, r28
    1baa:	0e 94 2c 0c 	call	0x1858	; 0x1858 <_ZN16PololuQTRSensors4readEPjh>
    1bae:	78 01       	movw	r14, r16
    1bb0:	00 e0       	ldi	r16, 0x00	; 0
    1bb2:	10 e0       	ldi	r17, 0x00	; 0
    1bb4:	c1 2c       	mov	r12, r1
    1bb6:	d1 2c       	mov	r13, r1
    1bb8:	88 85       	ldd	r24, Y+8	; 0x08
    1bba:	90 e0       	ldi	r25, 0x00	; 0
    1bbc:	c8 16       	cp	r12, r24
    1bbe:	d9 06       	cpc	r13, r25
    1bc0:	0c f0       	brlt	.+2      	; 0x1bc4 <_ZN16PololuQTRSensors14readCalibratedEPjh+0x68>
    1bc2:	74 c0       	rjmp	.+232    	; 0x1cac <_ZN16PololuQTRSensors14readCalibratedEPjh+0x150>
    1bc4:	81 e0       	ldi	r24, 0x01	; 1
    1bc6:	b8 12       	cpse	r11, r24
    1bc8:	0a c0       	rjmp	.+20     	; 0x1bde <_ZN16PololuQTRSensors14readCalibratedEPjh+0x82>
    1bca:	ea 81       	ldd	r30, Y+2	; 0x02
    1bcc:	fb 81       	ldd	r31, Y+3	; 0x03
    1bce:	e0 0f       	add	r30, r16
    1bd0:	f1 1f       	adc	r31, r17
    1bd2:	01 90       	ld	r0, Z+
    1bd4:	f0 81       	ld	r31, Z
    1bd6:	e0 2d       	mov	r30, r0
    1bd8:	a8 81       	ld	r26, Y
    1bda:	b9 81       	ldd	r27, Y+1	; 0x01
    1bdc:	0d c0       	rjmp	.+26     	; 0x1bf8 <_ZN16PololuQTRSensors14readCalibratedEPjh+0x9c>
    1bde:	8c 81       	ldd	r24, Y+4	; 0x04
    1be0:	9d 81       	ldd	r25, Y+5	; 0x05
    1be2:	2e 81       	ldd	r18, Y+6	; 0x06
    1be4:	3f 81       	ldd	r19, Y+7	; 0x07
    1be6:	b1 10       	cpse	r11, r1
    1be8:	0c c0       	rjmp	.+24     	; 0x1c02 <_ZN16PololuQTRSensors14readCalibratedEPjh+0xa6>
    1bea:	f9 01       	movw	r30, r18
    1bec:	e0 0f       	add	r30, r16
    1bee:	f1 1f       	adc	r31, r17
    1bf0:	01 90       	ld	r0, Z+
    1bf2:	f0 81       	ld	r31, Z
    1bf4:	e0 2d       	mov	r30, r0
    1bf6:	dc 01       	movw	r26, r24
    1bf8:	a0 0f       	add	r26, r16
    1bfa:	b1 1f       	adc	r27, r17
    1bfc:	8d 91       	ld	r24, X+
    1bfe:	9c 91       	ld	r25, X
    1c00:	28 c0       	rjmp	.+80     	; 0x1c52 <_ZN16PololuQTRSensors14readCalibratedEPjh+0xf6>
    1c02:	fc 01       	movw	r30, r24
    1c04:	e0 0f       	add	r30, r16
    1c06:	f1 1f       	adc	r31, r17
    1c08:	40 81       	ld	r20, Z
    1c0a:	51 81       	ldd	r21, Z+1	; 0x01
    1c0c:	e8 81       	ld	r30, Y
    1c0e:	f9 81       	ldd	r31, Y+1	; 0x01
    1c10:	e0 0f       	add	r30, r16
    1c12:	f1 1f       	adc	r31, r17
    1c14:	80 81       	ld	r24, Z
    1c16:	91 81       	ldd	r25, Z+1	; 0x01
    1c18:	ee 85       	ldd	r30, Y+14	; 0x0e
    1c1a:	ff 85       	ldd	r31, Y+15	; 0x0f
    1c1c:	48 17       	cp	r20, r24
    1c1e:	59 07       	cpc	r21, r25
    1c20:	10 f4       	brcc	.+4      	; 0x1c26 <_ZN16PololuQTRSensors14readCalibratedEPjh+0xca>
    1c22:	cf 01       	movw	r24, r30
    1c24:	04 c0       	rjmp	.+8      	; 0x1c2e <_ZN16PololuQTRSensors14readCalibratedEPjh+0xd2>
    1c26:	8e 0f       	add	r24, r30
    1c28:	9f 1f       	adc	r25, r31
    1c2a:	84 1b       	sub	r24, r20
    1c2c:	95 0b       	sbc	r25, r21
    1c2e:	d9 01       	movw	r26, r18
    1c30:	a0 0f       	add	r26, r16
    1c32:	b1 1f       	adc	r27, r17
    1c34:	2d 91       	ld	r18, X+
    1c36:	3c 91       	ld	r19, X
    1c38:	aa 81       	ldd	r26, Y+2	; 0x02
    1c3a:	bb 81       	ldd	r27, Y+3	; 0x03
    1c3c:	a0 0f       	add	r26, r16
    1c3e:	b1 1f       	adc	r27, r17
    1c40:	4d 91       	ld	r20, X+
    1c42:	5c 91       	ld	r21, X
    1c44:	24 17       	cp	r18, r20
    1c46:	35 07       	cpc	r19, r21
    1c48:	20 f0       	brcs	.+8      	; 0x1c52 <_ZN16PololuQTRSensors14readCalibratedEPjh+0xf6>
    1c4a:	e4 0f       	add	r30, r20
    1c4c:	f5 1f       	adc	r31, r21
    1c4e:	e2 1b       	sub	r30, r18
    1c50:	f3 0b       	sbc	r31, r19
    1c52:	e8 1b       	sub	r30, r24
    1c54:	f9 0b       	sbc	r31, r25
    1c56:	a9 f0       	breq	.+42     	; 0x1c82 <_ZN16PololuQTRSensors14readCalibratedEPjh+0x126>
    1c58:	d7 01       	movw	r26, r14
    1c5a:	2d 91       	ld	r18, X+
    1c5c:	3c 91       	ld	r19, X
    1c5e:	40 e0       	ldi	r20, 0x00	; 0
    1c60:	50 e0       	ldi	r21, 0x00	; 0
    1c62:	28 1b       	sub	r18, r24
    1c64:	39 0b       	sbc	r19, r25
    1c66:	41 09       	sbc	r20, r1
    1c68:	51 09       	sbc	r21, r1
    1c6a:	a8 ee       	ldi	r26, 0xE8	; 232
    1c6c:	b3 e0       	ldi	r27, 0x03	; 3
    1c6e:	0e 94 5e 0f 	call	0x1ebc	; 0x1ebc <__muluhisi3>
    1c72:	9f 01       	movw	r18, r30
    1c74:	40 e0       	ldi	r20, 0x00	; 0
    1c76:	50 e0       	ldi	r21, 0x00	; 0
    1c78:	0e 94 30 0f 	call	0x1e60	; 0x1e60 <__divmodsi4>
    1c7c:	37 fd       	sbrc	r19, 7
    1c7e:	0a c0       	rjmp	.+20     	; 0x1c94 <_ZN16PololuQTRSensors14readCalibratedEPjh+0x138>
    1c80:	02 c0       	rjmp	.+4      	; 0x1c86 <_ZN16PololuQTRSensors14readCalibratedEPjh+0x12a>
    1c82:	20 e0       	ldi	r18, 0x00	; 0
    1c84:	30 e0       	ldi	r19, 0x00	; 0
    1c86:	29 3e       	cpi	r18, 0xE9	; 233
    1c88:	b3 e0       	ldi	r27, 0x03	; 3
    1c8a:	3b 07       	cpc	r19, r27
    1c8c:	2c f0       	brlt	.+10     	; 0x1c98 <_ZN16PololuQTRSensors14readCalibratedEPjh+0x13c>
    1c8e:	28 ee       	ldi	r18, 0xE8	; 232
    1c90:	33 e0       	ldi	r19, 0x03	; 3
    1c92:	02 c0       	rjmp	.+4      	; 0x1c98 <_ZN16PololuQTRSensors14readCalibratedEPjh+0x13c>
    1c94:	20 e0       	ldi	r18, 0x00	; 0
    1c96:	30 e0       	ldi	r19, 0x00	; 0
    1c98:	f7 01       	movw	r30, r14
    1c9a:	21 93       	st	Z+, r18
    1c9c:	31 93       	st	Z+, r19
    1c9e:	7f 01       	movw	r14, r30
    1ca0:	ff ef       	ldi	r31, 0xFF	; 255
    1ca2:	cf 1a       	sub	r12, r31
    1ca4:	df 0a       	sbc	r13, r31
    1ca6:	0e 5f       	subi	r16, 0xFE	; 254
    1ca8:	1f 4f       	sbci	r17, 0xFF	; 255
    1caa:	86 cf       	rjmp	.-244    	; 0x1bb8 <_ZN16PololuQTRSensors14readCalibratedEPjh+0x5c>
    1cac:	cd b7       	in	r28, 0x3d	; 61
    1cae:	de b7       	in	r29, 0x3e	; 62
    1cb0:	e9 e0       	ldi	r30, 0x09	; 9
    1cb2:	0c 94 96 0f 	jmp	0x1f2c	; 0x1f2c <__epilogue_restores__+0x12>

00001cb6 <_ZN16PololuQTRSensors8readLineEPjhh>:
    1cb6:	a0 e0       	ldi	r26, 0x00	; 0
    1cb8:	b0 e0       	ldi	r27, 0x00	; 0
    1cba:	e1 e6       	ldi	r30, 0x61	; 97
    1cbc:	fe e0       	ldi	r31, 0x0E	; 14
    1cbe:	0c 94 71 0f 	jmp	0x1ee2	; 0x1ee2 <__prologue_saves__>
    1cc2:	ec 01       	movw	r28, r24
    1cc4:	8b 01       	movw	r16, r22
    1cc6:	82 2e       	mov	r8, r18
    1cc8:	0e 94 ae 0d 	call	0x1b5c	; 0x1b5c <_ZN16PololuQTRSensors14readCalibratedEPjh>
    1ccc:	28 84       	ldd	r2, Y+8	; 0x08
    1cce:	e8 01       	movw	r28, r16
    1cd0:	41 2c       	mov	r4, r1
    1cd2:	51 2c       	mov	r5, r1
    1cd4:	32 01       	movw	r6, r4
    1cd6:	00 e0       	ldi	r16, 0x00	; 0
    1cd8:	10 e0       	ldi	r17, 0x00	; 0
    1cda:	c1 2c       	mov	r12, r1
    1cdc:	d1 2c       	mov	r13, r1
    1cde:	76 01       	movw	r14, r12
    1ce0:	31 2c       	mov	r3, r1
    1ce2:	91 2c       	mov	r9, r1
    1ce4:	58 ee       	ldi	r21, 0xE8	; 232
    1ce6:	a5 2e       	mov	r10, r21
    1ce8:	53 e0       	ldi	r21, 0x03	; 3
    1cea:	b5 2e       	mov	r11, r21
    1cec:	92 14       	cp	r9, r2
    1cee:	21 f1       	breq	.+72     	; 0x1d38 <_ZN16PololuQTRSensors8readLineEPjhh+0x82>
    1cf0:	e9 91       	ld	r30, Y+
    1cf2:	f9 91       	ld	r31, Y+
    1cf4:	88 20       	and	r8, r8
    1cf6:	21 f0       	breq	.+8      	; 0x1d00 <_ZN16PololuQTRSensors8readLineEPjhh+0x4a>
    1cf8:	c5 01       	movw	r24, r10
    1cfa:	8e 1b       	sub	r24, r30
    1cfc:	9f 0b       	sbc	r25, r31
    1cfe:	fc 01       	movw	r30, r24
    1d00:	e9 3c       	cpi	r30, 0xC9	; 201
    1d02:	f1 05       	cpc	r31, r1
    1d04:	24 f4       	brge	.+8      	; 0x1d0e <_ZN16PololuQTRSensors8readLineEPjhh+0x58>
    1d06:	e3 33       	cpi	r30, 0x33	; 51
    1d08:	f1 05       	cpc	r31, r1
    1d0a:	74 f0       	brlt	.+28     	; 0x1d28 <_ZN16PololuQTRSensors8readLineEPjhh+0x72>
    1d0c:	02 c0       	rjmp	.+4      	; 0x1d12 <_ZN16PololuQTRSensors8readLineEPjhh+0x5c>
    1d0e:	33 24       	eor	r3, r3
    1d10:	33 94       	inc	r3
    1d12:	df 01       	movw	r26, r30
    1d14:	a3 01       	movw	r20, r6
    1d16:	92 01       	movw	r18, r4
    1d18:	0e 94 69 0f 	call	0x1ed2	; 0x1ed2 <__mulshisi3>
    1d1c:	c6 0e       	add	r12, r22
    1d1e:	d7 1e       	adc	r13, r23
    1d20:	e8 1e       	adc	r14, r24
    1d22:	f9 1e       	adc	r15, r25
    1d24:	0e 0f       	add	r16, r30
    1d26:	1f 1f       	adc	r17, r31
    1d28:	93 94       	inc	r9
    1d2a:	98 ee       	ldi	r25, 0xE8	; 232
    1d2c:	49 0e       	add	r4, r25
    1d2e:	93 e0       	ldi	r25, 0x03	; 3
    1d30:	59 1e       	adc	r5, r25
    1d32:	61 1c       	adc	r6, r1
    1d34:	71 1c       	adc	r7, r1
    1d36:	da cf       	rjmp	.-76     	; 0x1cec <_ZN16PololuQTRSensors8readLineEPjhh+0x36>
    1d38:	31 10       	cpse	r3, r1
    1d3a:	1e c0       	rjmp	.+60     	; 0x1d78 <_ZN16PololuQTRSensors8readLineEPjhh+0xc2>
    1d3c:	49 2d       	mov	r20, r9
    1d3e:	50 e0       	ldi	r21, 0x00	; 0
    1d40:	41 50       	subi	r20, 0x01	; 1
    1d42:	51 09       	sbc	r21, r1
    1d44:	24 ef       	ldi	r18, 0xF4	; 244
    1d46:	31 e0       	ldi	r19, 0x01	; 1
    1d48:	42 9f       	mul	r20, r18
    1d4a:	c0 01       	movw	r24, r0
    1d4c:	43 9f       	mul	r20, r19
    1d4e:	90 0d       	add	r25, r0
    1d50:	52 9f       	mul	r21, r18
    1d52:	90 0d       	add	r25, r0
    1d54:	11 24       	eor	r1, r1
    1d56:	20 91 a9 01 	lds	r18, 0x01A9	; 0x8001a9 <_ZZN16PololuQTRSensors8readLineEPjhhE10last_value>
    1d5a:	30 91 aa 01 	lds	r19, 0x01AA	; 0x8001aa <_ZZN16PololuQTRSensors8readLineEPjhhE10last_value+0x1>
    1d5e:	28 17       	cp	r18, r24
    1d60:	39 07       	cpc	r19, r25
    1d62:	b4 f0       	brlt	.+44     	; 0x1d90 <_ZN16PololuQTRSensors8readLineEPjhh+0xda>
    1d64:	88 ee       	ldi	r24, 0xE8	; 232
    1d66:	93 e0       	ldi	r25, 0x03	; 3
    1d68:	48 9f       	mul	r20, r24
    1d6a:	90 01       	movw	r18, r0
    1d6c:	49 9f       	mul	r20, r25
    1d6e:	30 0d       	add	r19, r0
    1d70:	58 9f       	mul	r21, r24
    1d72:	30 0d       	add	r19, r0
    1d74:	11 24       	eor	r1, r1
    1d76:	0e c0       	rjmp	.+28     	; 0x1d94 <_ZN16PololuQTRSensors8readLineEPjhh+0xde>
    1d78:	98 01       	movw	r18, r16
    1d7a:	40 e0       	ldi	r20, 0x00	; 0
    1d7c:	50 e0       	ldi	r21, 0x00	; 0
    1d7e:	c7 01       	movw	r24, r14
    1d80:	b6 01       	movw	r22, r12
    1d82:	0e 94 0e 0f 	call	0x1e1c	; 0x1e1c <__udivmodsi4>
    1d86:	30 93 aa 01 	sts	0x01AA, r19	; 0x8001aa <_ZZN16PololuQTRSensors8readLineEPjhhE10last_value+0x1>
    1d8a:	20 93 a9 01 	sts	0x01A9, r18	; 0x8001a9 <_ZZN16PololuQTRSensors8readLineEPjhhE10last_value>
    1d8e:	02 c0       	rjmp	.+4      	; 0x1d94 <_ZN16PololuQTRSensors8readLineEPjhh+0xde>
    1d90:	20 e0       	ldi	r18, 0x00	; 0
    1d92:	30 e0       	ldi	r19, 0x00	; 0
    1d94:	c9 01       	movw	r24, r18
    1d96:	cd b7       	in	r28, 0x3d	; 61
    1d98:	de b7       	in	r29, 0x3e	; 62
    1d9a:	e2 e1       	ldi	r30, 0x12	; 18
    1d9c:	0c 94 8d 0f 	jmp	0x1f1a	; 0x1f1a <__epilogue_restores__>

00001da0 <_ZN16PololuQTRSensorsD1Ev>:
    1da0:	cf 93       	push	r28
    1da2:	df 93       	push	r29
    1da4:	ec 01       	movw	r28, r24
    1da6:	8a 81       	ldd	r24, Y+2	; 0x02
    1da8:	9b 81       	ldd	r25, Y+3	; 0x03
    1daa:	00 97       	sbiw	r24, 0x00	; 0
    1dac:	11 f0       	breq	.+4      	; 0x1db2 <_ZN16PololuQTRSensorsD1Ev+0x12>
    1dae:	0e 94 46 10 	call	0x208c	; 0x208c <free>
    1db2:	8e 81       	ldd	r24, Y+6	; 0x06
    1db4:	9f 81       	ldd	r25, Y+7	; 0x07
    1db6:	00 97       	sbiw	r24, 0x00	; 0
    1db8:	11 f0       	breq	.+4      	; 0x1dbe <_ZN16PololuQTRSensorsD1Ev+0x1e>
    1dba:	0e 94 46 10 	call	0x208c	; 0x208c <free>
    1dbe:	88 81       	ld	r24, Y
    1dc0:	99 81       	ldd	r25, Y+1	; 0x01
    1dc2:	00 97       	sbiw	r24, 0x00	; 0
    1dc4:	11 f0       	breq	.+4      	; 0x1dca <_ZN16PololuQTRSensorsD1Ev+0x2a>
    1dc6:	0e 94 46 10 	call	0x208c	; 0x208c <free>
    1dca:	8c 81       	ldd	r24, Y+4	; 0x04
    1dcc:	9d 81       	ldd	r25, Y+5	; 0x05
    1dce:	00 97       	sbiw	r24, 0x00	; 0
    1dd0:	11 f0       	breq	.+4      	; 0x1dd6 <_ZN16PololuQTRSensorsD1Ev+0x36>
    1dd2:	0e 94 46 10 	call	0x208c	; 0x208c <free>
    1dd6:	df 91       	pop	r29
    1dd8:	cf 91       	pop	r28
    1dda:	08 95       	ret

00001ddc <__udivmodqi4>:
    1ddc:	99 1b       	sub	r25, r25
    1dde:	79 e0       	ldi	r23, 0x09	; 9
    1de0:	04 c0       	rjmp	.+8      	; 0x1dea <__udivmodqi4_ep>

00001de2 <__udivmodqi4_loop>:
    1de2:	99 1f       	adc	r25, r25
    1de4:	96 17       	cp	r25, r22
    1de6:	08 f0       	brcs	.+2      	; 0x1dea <__udivmodqi4_ep>
    1de8:	96 1b       	sub	r25, r22

00001dea <__udivmodqi4_ep>:
    1dea:	88 1f       	adc	r24, r24
    1dec:	7a 95       	dec	r23
    1dee:	c9 f7       	brne	.-14     	; 0x1de2 <__udivmodqi4_loop>
    1df0:	80 95       	com	r24
    1df2:	08 95       	ret

00001df4 <__udivmodhi4>:
    1df4:	aa 1b       	sub	r26, r26
    1df6:	bb 1b       	sub	r27, r27
    1df8:	51 e1       	ldi	r21, 0x11	; 17
    1dfa:	07 c0       	rjmp	.+14     	; 0x1e0a <__udivmodhi4_ep>

00001dfc <__udivmodhi4_loop>:
    1dfc:	aa 1f       	adc	r26, r26
    1dfe:	bb 1f       	adc	r27, r27
    1e00:	a6 17       	cp	r26, r22
    1e02:	b7 07       	cpc	r27, r23
    1e04:	10 f0       	brcs	.+4      	; 0x1e0a <__udivmodhi4_ep>
    1e06:	a6 1b       	sub	r26, r22
    1e08:	b7 0b       	sbc	r27, r23

00001e0a <__udivmodhi4_ep>:
    1e0a:	88 1f       	adc	r24, r24
    1e0c:	99 1f       	adc	r25, r25
    1e0e:	5a 95       	dec	r21
    1e10:	a9 f7       	brne	.-22     	; 0x1dfc <__udivmodhi4_loop>
    1e12:	80 95       	com	r24
    1e14:	90 95       	com	r25
    1e16:	bc 01       	movw	r22, r24
    1e18:	cd 01       	movw	r24, r26
    1e1a:	08 95       	ret

00001e1c <__udivmodsi4>:
    1e1c:	a1 e2       	ldi	r26, 0x21	; 33
    1e1e:	1a 2e       	mov	r1, r26
    1e20:	aa 1b       	sub	r26, r26
    1e22:	bb 1b       	sub	r27, r27
    1e24:	fd 01       	movw	r30, r26
    1e26:	0d c0       	rjmp	.+26     	; 0x1e42 <__udivmodsi4_ep>

00001e28 <__udivmodsi4_loop>:
    1e28:	aa 1f       	adc	r26, r26
    1e2a:	bb 1f       	adc	r27, r27
    1e2c:	ee 1f       	adc	r30, r30
    1e2e:	ff 1f       	adc	r31, r31
    1e30:	a2 17       	cp	r26, r18
    1e32:	b3 07       	cpc	r27, r19
    1e34:	e4 07       	cpc	r30, r20
    1e36:	f5 07       	cpc	r31, r21
    1e38:	20 f0       	brcs	.+8      	; 0x1e42 <__udivmodsi4_ep>
    1e3a:	a2 1b       	sub	r26, r18
    1e3c:	b3 0b       	sbc	r27, r19
    1e3e:	e4 0b       	sbc	r30, r20
    1e40:	f5 0b       	sbc	r31, r21

00001e42 <__udivmodsi4_ep>:
    1e42:	66 1f       	adc	r22, r22
    1e44:	77 1f       	adc	r23, r23
    1e46:	88 1f       	adc	r24, r24
    1e48:	99 1f       	adc	r25, r25
    1e4a:	1a 94       	dec	r1
    1e4c:	69 f7       	brne	.-38     	; 0x1e28 <__udivmodsi4_loop>
    1e4e:	60 95       	com	r22
    1e50:	70 95       	com	r23
    1e52:	80 95       	com	r24
    1e54:	90 95       	com	r25
    1e56:	9b 01       	movw	r18, r22
    1e58:	ac 01       	movw	r20, r24
    1e5a:	bd 01       	movw	r22, r26
    1e5c:	cf 01       	movw	r24, r30
    1e5e:	08 95       	ret

00001e60 <__divmodsi4>:
    1e60:	05 2e       	mov	r0, r21
    1e62:	97 fb       	bst	r25, 7
    1e64:	1e f4       	brtc	.+6      	; 0x1e6c <__divmodsi4+0xc>
    1e66:	00 94       	com	r0
    1e68:	0e 94 47 0f 	call	0x1e8e	; 0x1e8e <__negsi2>
    1e6c:	57 fd       	sbrc	r21, 7
    1e6e:	07 d0       	rcall	.+14     	; 0x1e7e <__divmodsi4_neg2>
    1e70:	0e 94 0e 0f 	call	0x1e1c	; 0x1e1c <__udivmodsi4>
    1e74:	07 fc       	sbrc	r0, 7
    1e76:	03 d0       	rcall	.+6      	; 0x1e7e <__divmodsi4_neg2>
    1e78:	4e f4       	brtc	.+18     	; 0x1e8c <__divmodsi4_exit>
    1e7a:	0c 94 47 0f 	jmp	0x1e8e	; 0x1e8e <__negsi2>

00001e7e <__divmodsi4_neg2>:
    1e7e:	50 95       	com	r21
    1e80:	40 95       	com	r20
    1e82:	30 95       	com	r19
    1e84:	21 95       	neg	r18
    1e86:	3f 4f       	sbci	r19, 0xFF	; 255
    1e88:	4f 4f       	sbci	r20, 0xFF	; 255
    1e8a:	5f 4f       	sbci	r21, 0xFF	; 255

00001e8c <__divmodsi4_exit>:
    1e8c:	08 95       	ret

00001e8e <__negsi2>:
    1e8e:	90 95       	com	r25
    1e90:	80 95       	com	r24
    1e92:	70 95       	com	r23
    1e94:	61 95       	neg	r22
    1e96:	7f 4f       	sbci	r23, 0xFF	; 255
    1e98:	8f 4f       	sbci	r24, 0xFF	; 255
    1e9a:	9f 4f       	sbci	r25, 0xFF	; 255
    1e9c:	08 95       	ret

00001e9e <__umulhisi3>:
    1e9e:	a2 9f       	mul	r26, r18
    1ea0:	b0 01       	movw	r22, r0
    1ea2:	b3 9f       	mul	r27, r19
    1ea4:	c0 01       	movw	r24, r0
    1ea6:	a3 9f       	mul	r26, r19
    1ea8:	70 0d       	add	r23, r0
    1eaa:	81 1d       	adc	r24, r1
    1eac:	11 24       	eor	r1, r1
    1eae:	91 1d       	adc	r25, r1
    1eb0:	b2 9f       	mul	r27, r18
    1eb2:	70 0d       	add	r23, r0
    1eb4:	81 1d       	adc	r24, r1
    1eb6:	11 24       	eor	r1, r1
    1eb8:	91 1d       	adc	r25, r1
    1eba:	08 95       	ret

00001ebc <__muluhisi3>:
    1ebc:	0e 94 4f 0f 	call	0x1e9e	; 0x1e9e <__umulhisi3>
    1ec0:	a5 9f       	mul	r26, r21
    1ec2:	90 0d       	add	r25, r0
    1ec4:	b4 9f       	mul	r27, r20
    1ec6:	90 0d       	add	r25, r0
    1ec8:	a4 9f       	mul	r26, r20
    1eca:	80 0d       	add	r24, r0
    1ecc:	91 1d       	adc	r25, r1
    1ece:	11 24       	eor	r1, r1
    1ed0:	08 95       	ret

00001ed2 <__mulshisi3>:
    1ed2:	b7 ff       	sbrs	r27, 7
    1ed4:	0c 94 5e 0f 	jmp	0x1ebc	; 0x1ebc <__muluhisi3>

00001ed8 <__mulohisi3>:
    1ed8:	0e 94 5e 0f 	call	0x1ebc	; 0x1ebc <__muluhisi3>
    1edc:	82 1b       	sub	r24, r18
    1ede:	93 0b       	sbc	r25, r19
    1ee0:	08 95       	ret

00001ee2 <__prologue_saves__>:
    1ee2:	2f 92       	push	r2
    1ee4:	3f 92       	push	r3
    1ee6:	4f 92       	push	r4
    1ee8:	5f 92       	push	r5
    1eea:	6f 92       	push	r6
    1eec:	7f 92       	push	r7
    1eee:	8f 92       	push	r8
    1ef0:	9f 92       	push	r9
    1ef2:	af 92       	push	r10
    1ef4:	bf 92       	push	r11
    1ef6:	cf 92       	push	r12
    1ef8:	df 92       	push	r13
    1efa:	ef 92       	push	r14
    1efc:	ff 92       	push	r15
    1efe:	0f 93       	push	r16
    1f00:	1f 93       	push	r17
    1f02:	cf 93       	push	r28
    1f04:	df 93       	push	r29
    1f06:	cd b7       	in	r28, 0x3d	; 61
    1f08:	de b7       	in	r29, 0x3e	; 62
    1f0a:	ca 1b       	sub	r28, r26
    1f0c:	db 0b       	sbc	r29, r27
    1f0e:	0f b6       	in	r0, 0x3f	; 63
    1f10:	f8 94       	cli
    1f12:	de bf       	out	0x3e, r29	; 62
    1f14:	0f be       	out	0x3f, r0	; 63
    1f16:	cd bf       	out	0x3d, r28	; 61
    1f18:	09 94       	ijmp

00001f1a <__epilogue_restores__>:
    1f1a:	2a 88       	ldd	r2, Y+18	; 0x12
    1f1c:	39 88       	ldd	r3, Y+17	; 0x11
    1f1e:	48 88       	ldd	r4, Y+16	; 0x10
    1f20:	5f 84       	ldd	r5, Y+15	; 0x0f
    1f22:	6e 84       	ldd	r6, Y+14	; 0x0e
    1f24:	7d 84       	ldd	r7, Y+13	; 0x0d
    1f26:	8c 84       	ldd	r8, Y+12	; 0x0c
    1f28:	9b 84       	ldd	r9, Y+11	; 0x0b
    1f2a:	aa 84       	ldd	r10, Y+10	; 0x0a
    1f2c:	b9 84       	ldd	r11, Y+9	; 0x09
    1f2e:	c8 84       	ldd	r12, Y+8	; 0x08
    1f30:	df 80       	ldd	r13, Y+7	; 0x07
    1f32:	ee 80       	ldd	r14, Y+6	; 0x06
    1f34:	fd 80       	ldd	r15, Y+5	; 0x05
    1f36:	0c 81       	ldd	r16, Y+4	; 0x04
    1f38:	1b 81       	ldd	r17, Y+3	; 0x03
    1f3a:	aa 81       	ldd	r26, Y+2	; 0x02
    1f3c:	b9 81       	ldd	r27, Y+1	; 0x01
    1f3e:	ce 0f       	add	r28, r30
    1f40:	d1 1d       	adc	r29, r1
    1f42:	0f b6       	in	r0, 0x3f	; 63
    1f44:	f8 94       	cli
    1f46:	de bf       	out	0x3e, r29	; 62
    1f48:	0f be       	out	0x3f, r0	; 63
    1f4a:	cd bf       	out	0x3d, r28	; 61
    1f4c:	ed 01       	movw	r28, r26
    1f4e:	08 95       	ret

00001f50 <__tablejump2__>:
    1f50:	ee 0f       	add	r30, r30
    1f52:	ff 1f       	adc	r31, r31
    1f54:	05 90       	lpm	r0, Z+
    1f56:	f4 91       	lpm	r31, Z
    1f58:	e0 2d       	mov	r30, r0
    1f5a:	09 94       	ijmp

00001f5c <malloc>:
    1f5c:	0f 93       	push	r16
    1f5e:	1f 93       	push	r17
    1f60:	cf 93       	push	r28
    1f62:	df 93       	push	r29
    1f64:	82 30       	cpi	r24, 0x02	; 2
    1f66:	91 05       	cpc	r25, r1
    1f68:	10 f4       	brcc	.+4      	; 0x1f6e <malloc+0x12>
    1f6a:	82 e0       	ldi	r24, 0x02	; 2
    1f6c:	90 e0       	ldi	r25, 0x00	; 0
    1f6e:	e0 91 b3 01 	lds	r30, 0x01B3	; 0x8001b3 <__flp>
    1f72:	f0 91 b4 01 	lds	r31, 0x01B4	; 0x8001b4 <__flp+0x1>
    1f76:	20 e0       	ldi	r18, 0x00	; 0
    1f78:	30 e0       	ldi	r19, 0x00	; 0
    1f7a:	a0 e0       	ldi	r26, 0x00	; 0
    1f7c:	b0 e0       	ldi	r27, 0x00	; 0
    1f7e:	30 97       	sbiw	r30, 0x00	; 0
    1f80:	19 f1       	breq	.+70     	; 0x1fc8 <malloc+0x6c>
    1f82:	40 81       	ld	r20, Z
    1f84:	51 81       	ldd	r21, Z+1	; 0x01
    1f86:	02 81       	ldd	r16, Z+2	; 0x02
    1f88:	13 81       	ldd	r17, Z+3	; 0x03
    1f8a:	48 17       	cp	r20, r24
    1f8c:	59 07       	cpc	r21, r25
    1f8e:	c8 f0       	brcs	.+50     	; 0x1fc2 <malloc+0x66>
    1f90:	84 17       	cp	r24, r20
    1f92:	95 07       	cpc	r25, r21
    1f94:	69 f4       	brne	.+26     	; 0x1fb0 <malloc+0x54>
    1f96:	10 97       	sbiw	r26, 0x00	; 0
    1f98:	31 f0       	breq	.+12     	; 0x1fa6 <malloc+0x4a>
    1f9a:	12 96       	adiw	r26, 0x02	; 2
    1f9c:	0c 93       	st	X, r16
    1f9e:	12 97       	sbiw	r26, 0x02	; 2
    1fa0:	13 96       	adiw	r26, 0x03	; 3
    1fa2:	1c 93       	st	X, r17
    1fa4:	27 c0       	rjmp	.+78     	; 0x1ff4 <malloc+0x98>
    1fa6:	00 93 b3 01 	sts	0x01B3, r16	; 0x8001b3 <__flp>
    1faa:	10 93 b4 01 	sts	0x01B4, r17	; 0x8001b4 <__flp+0x1>
    1fae:	22 c0       	rjmp	.+68     	; 0x1ff4 <malloc+0x98>
    1fb0:	21 15       	cp	r18, r1
    1fb2:	31 05       	cpc	r19, r1
    1fb4:	19 f0       	breq	.+6      	; 0x1fbc <malloc+0x60>
    1fb6:	42 17       	cp	r20, r18
    1fb8:	53 07       	cpc	r21, r19
    1fba:	18 f4       	brcc	.+6      	; 0x1fc2 <malloc+0x66>
    1fbc:	9a 01       	movw	r18, r20
    1fbe:	bd 01       	movw	r22, r26
    1fc0:	ef 01       	movw	r28, r30
    1fc2:	df 01       	movw	r26, r30
    1fc4:	f8 01       	movw	r30, r16
    1fc6:	db cf       	rjmp	.-74     	; 0x1f7e <malloc+0x22>
    1fc8:	21 15       	cp	r18, r1
    1fca:	31 05       	cpc	r19, r1
    1fcc:	f9 f0       	breq	.+62     	; 0x200c <malloc+0xb0>
    1fce:	28 1b       	sub	r18, r24
    1fd0:	39 0b       	sbc	r19, r25
    1fd2:	24 30       	cpi	r18, 0x04	; 4
    1fd4:	31 05       	cpc	r19, r1
    1fd6:	80 f4       	brcc	.+32     	; 0x1ff8 <malloc+0x9c>
    1fd8:	8a 81       	ldd	r24, Y+2	; 0x02
    1fda:	9b 81       	ldd	r25, Y+3	; 0x03
    1fdc:	61 15       	cp	r22, r1
    1fde:	71 05       	cpc	r23, r1
    1fe0:	21 f0       	breq	.+8      	; 0x1fea <malloc+0x8e>
    1fe2:	fb 01       	movw	r30, r22
    1fe4:	93 83       	std	Z+3, r25	; 0x03
    1fe6:	82 83       	std	Z+2, r24	; 0x02
    1fe8:	04 c0       	rjmp	.+8      	; 0x1ff2 <malloc+0x96>
    1fea:	90 93 b4 01 	sts	0x01B4, r25	; 0x8001b4 <__flp+0x1>
    1fee:	80 93 b3 01 	sts	0x01B3, r24	; 0x8001b3 <__flp>
    1ff2:	fe 01       	movw	r30, r28
    1ff4:	32 96       	adiw	r30, 0x02	; 2
    1ff6:	44 c0       	rjmp	.+136    	; 0x2080 <malloc+0x124>
    1ff8:	fe 01       	movw	r30, r28
    1ffa:	e2 0f       	add	r30, r18
    1ffc:	f3 1f       	adc	r31, r19
    1ffe:	81 93       	st	Z+, r24
    2000:	91 93       	st	Z+, r25
    2002:	22 50       	subi	r18, 0x02	; 2
    2004:	31 09       	sbc	r19, r1
    2006:	39 83       	std	Y+1, r19	; 0x01
    2008:	28 83       	st	Y, r18
    200a:	3a c0       	rjmp	.+116    	; 0x2080 <malloc+0x124>
    200c:	20 91 b1 01 	lds	r18, 0x01B1	; 0x8001b1 <__brkval>
    2010:	30 91 b2 01 	lds	r19, 0x01B2	; 0x8001b2 <__brkval+0x1>
    2014:	23 2b       	or	r18, r19
    2016:	41 f4       	brne	.+16     	; 0x2028 <malloc+0xcc>
    2018:	20 91 10 01 	lds	r18, 0x0110	; 0x800110 <__malloc_heap_start>
    201c:	30 91 11 01 	lds	r19, 0x0111	; 0x800111 <__malloc_heap_start+0x1>
    2020:	30 93 b2 01 	sts	0x01B2, r19	; 0x8001b2 <__brkval+0x1>
    2024:	20 93 b1 01 	sts	0x01B1, r18	; 0x8001b1 <__brkval>
    2028:	20 91 0e 01 	lds	r18, 0x010E	; 0x80010e <__malloc_heap_end>
    202c:	30 91 0f 01 	lds	r19, 0x010F	; 0x80010f <__malloc_heap_end+0x1>
    2030:	21 15       	cp	r18, r1
    2032:	31 05       	cpc	r19, r1
    2034:	41 f4       	brne	.+16     	; 0x2046 <malloc+0xea>
    2036:	2d b7       	in	r18, 0x3d	; 61
    2038:	3e b7       	in	r19, 0x3e	; 62
    203a:	40 91 12 01 	lds	r20, 0x0112	; 0x800112 <__malloc_margin>
    203e:	50 91 13 01 	lds	r21, 0x0113	; 0x800113 <__malloc_margin+0x1>
    2042:	24 1b       	sub	r18, r20
    2044:	35 0b       	sbc	r19, r21
    2046:	e0 91 b1 01 	lds	r30, 0x01B1	; 0x8001b1 <__brkval>
    204a:	f0 91 b2 01 	lds	r31, 0x01B2	; 0x8001b2 <__brkval+0x1>
    204e:	e2 17       	cp	r30, r18
    2050:	f3 07       	cpc	r31, r19
    2052:	a0 f4       	brcc	.+40     	; 0x207c <malloc+0x120>
    2054:	2e 1b       	sub	r18, r30
    2056:	3f 0b       	sbc	r19, r31
    2058:	28 17       	cp	r18, r24
    205a:	39 07       	cpc	r19, r25
    205c:	78 f0       	brcs	.+30     	; 0x207c <malloc+0x120>
    205e:	ac 01       	movw	r20, r24
    2060:	4e 5f       	subi	r20, 0xFE	; 254
    2062:	5f 4f       	sbci	r21, 0xFF	; 255
    2064:	24 17       	cp	r18, r20
    2066:	35 07       	cpc	r19, r21
    2068:	48 f0       	brcs	.+18     	; 0x207c <malloc+0x120>
    206a:	4e 0f       	add	r20, r30
    206c:	5f 1f       	adc	r21, r31
    206e:	50 93 b2 01 	sts	0x01B2, r21	; 0x8001b2 <__brkval+0x1>
    2072:	40 93 b1 01 	sts	0x01B1, r20	; 0x8001b1 <__brkval>
    2076:	81 93       	st	Z+, r24
    2078:	91 93       	st	Z+, r25
    207a:	02 c0       	rjmp	.+4      	; 0x2080 <malloc+0x124>
    207c:	e0 e0       	ldi	r30, 0x00	; 0
    207e:	f0 e0       	ldi	r31, 0x00	; 0
    2080:	cf 01       	movw	r24, r30
    2082:	df 91       	pop	r29
    2084:	cf 91       	pop	r28
    2086:	1f 91       	pop	r17
    2088:	0f 91       	pop	r16
    208a:	08 95       	ret

0000208c <free>:
    208c:	cf 93       	push	r28
    208e:	df 93       	push	r29
    2090:	00 97       	sbiw	r24, 0x00	; 0
    2092:	09 f4       	brne	.+2      	; 0x2096 <free+0xa>
    2094:	81 c0       	rjmp	.+258    	; 0x2198 <free+0x10c>
    2096:	fc 01       	movw	r30, r24
    2098:	32 97       	sbiw	r30, 0x02	; 2
    209a:	13 82       	std	Z+3, r1	; 0x03
    209c:	12 82       	std	Z+2, r1	; 0x02
    209e:	a0 91 b3 01 	lds	r26, 0x01B3	; 0x8001b3 <__flp>
    20a2:	b0 91 b4 01 	lds	r27, 0x01B4	; 0x8001b4 <__flp+0x1>
    20a6:	10 97       	sbiw	r26, 0x00	; 0
    20a8:	81 f4       	brne	.+32     	; 0x20ca <free+0x3e>
    20aa:	20 81       	ld	r18, Z
    20ac:	31 81       	ldd	r19, Z+1	; 0x01
    20ae:	82 0f       	add	r24, r18
    20b0:	93 1f       	adc	r25, r19
    20b2:	20 91 b1 01 	lds	r18, 0x01B1	; 0x8001b1 <__brkval>
    20b6:	30 91 b2 01 	lds	r19, 0x01B2	; 0x8001b2 <__brkval+0x1>
    20ba:	28 17       	cp	r18, r24
    20bc:	39 07       	cpc	r19, r25
    20be:	51 f5       	brne	.+84     	; 0x2114 <free+0x88>
    20c0:	f0 93 b2 01 	sts	0x01B2, r31	; 0x8001b2 <__brkval+0x1>
    20c4:	e0 93 b1 01 	sts	0x01B1, r30	; 0x8001b1 <__brkval>
    20c8:	67 c0       	rjmp	.+206    	; 0x2198 <free+0x10c>
    20ca:	ed 01       	movw	r28, r26
    20cc:	20 e0       	ldi	r18, 0x00	; 0
    20ce:	30 e0       	ldi	r19, 0x00	; 0
    20d0:	ce 17       	cp	r28, r30
    20d2:	df 07       	cpc	r29, r31
    20d4:	40 f4       	brcc	.+16     	; 0x20e6 <free+0x5a>
    20d6:	4a 81       	ldd	r20, Y+2	; 0x02
    20d8:	5b 81       	ldd	r21, Y+3	; 0x03
    20da:	9e 01       	movw	r18, r28
    20dc:	41 15       	cp	r20, r1
    20de:	51 05       	cpc	r21, r1
    20e0:	f1 f0       	breq	.+60     	; 0x211e <free+0x92>
    20e2:	ea 01       	movw	r28, r20
    20e4:	f5 cf       	rjmp	.-22     	; 0x20d0 <free+0x44>
    20e6:	d3 83       	std	Z+3, r29	; 0x03
    20e8:	c2 83       	std	Z+2, r28	; 0x02
    20ea:	40 81       	ld	r20, Z
    20ec:	51 81       	ldd	r21, Z+1	; 0x01
    20ee:	84 0f       	add	r24, r20
    20f0:	95 1f       	adc	r25, r21
    20f2:	c8 17       	cp	r28, r24
    20f4:	d9 07       	cpc	r29, r25
    20f6:	59 f4       	brne	.+22     	; 0x210e <free+0x82>
    20f8:	88 81       	ld	r24, Y
    20fa:	99 81       	ldd	r25, Y+1	; 0x01
    20fc:	84 0f       	add	r24, r20
    20fe:	95 1f       	adc	r25, r21
    2100:	02 96       	adiw	r24, 0x02	; 2
    2102:	91 83       	std	Z+1, r25	; 0x01
    2104:	80 83       	st	Z, r24
    2106:	8a 81       	ldd	r24, Y+2	; 0x02
    2108:	9b 81       	ldd	r25, Y+3	; 0x03
    210a:	93 83       	std	Z+3, r25	; 0x03
    210c:	82 83       	std	Z+2, r24	; 0x02
    210e:	21 15       	cp	r18, r1
    2110:	31 05       	cpc	r19, r1
    2112:	29 f4       	brne	.+10     	; 0x211e <free+0x92>
    2114:	f0 93 b4 01 	sts	0x01B4, r31	; 0x8001b4 <__flp+0x1>
    2118:	e0 93 b3 01 	sts	0x01B3, r30	; 0x8001b3 <__flp>
    211c:	3d c0       	rjmp	.+122    	; 0x2198 <free+0x10c>
    211e:	e9 01       	movw	r28, r18
    2120:	fb 83       	std	Y+3, r31	; 0x03
    2122:	ea 83       	std	Y+2, r30	; 0x02
    2124:	49 91       	ld	r20, Y+
    2126:	59 91       	ld	r21, Y+
    2128:	c4 0f       	add	r28, r20
    212a:	d5 1f       	adc	r29, r21
    212c:	ec 17       	cp	r30, r28
    212e:	fd 07       	cpc	r31, r29
    2130:	61 f4       	brne	.+24     	; 0x214a <free+0xbe>
    2132:	80 81       	ld	r24, Z
    2134:	91 81       	ldd	r25, Z+1	; 0x01
    2136:	84 0f       	add	r24, r20
    2138:	95 1f       	adc	r25, r21
    213a:	02 96       	adiw	r24, 0x02	; 2
    213c:	e9 01       	movw	r28, r18
    213e:	99 83       	std	Y+1, r25	; 0x01
    2140:	88 83       	st	Y, r24
    2142:	82 81       	ldd	r24, Z+2	; 0x02
    2144:	93 81       	ldd	r25, Z+3	; 0x03
    2146:	9b 83       	std	Y+3, r25	; 0x03
    2148:	8a 83       	std	Y+2, r24	; 0x02
    214a:	e0 e0       	ldi	r30, 0x00	; 0
    214c:	f0 e0       	ldi	r31, 0x00	; 0
    214e:	12 96       	adiw	r26, 0x02	; 2
    2150:	8d 91       	ld	r24, X+
    2152:	9c 91       	ld	r25, X
    2154:	13 97       	sbiw	r26, 0x03	; 3
    2156:	00 97       	sbiw	r24, 0x00	; 0
    2158:	19 f0       	breq	.+6      	; 0x2160 <free+0xd4>
    215a:	fd 01       	movw	r30, r26
    215c:	dc 01       	movw	r26, r24
    215e:	f7 cf       	rjmp	.-18     	; 0x214e <free+0xc2>
    2160:	8d 91       	ld	r24, X+
    2162:	9c 91       	ld	r25, X
    2164:	11 97       	sbiw	r26, 0x01	; 1
    2166:	9d 01       	movw	r18, r26
    2168:	2e 5f       	subi	r18, 0xFE	; 254
    216a:	3f 4f       	sbci	r19, 0xFF	; 255
    216c:	82 0f       	add	r24, r18
    216e:	93 1f       	adc	r25, r19
    2170:	20 91 b1 01 	lds	r18, 0x01B1	; 0x8001b1 <__brkval>
    2174:	30 91 b2 01 	lds	r19, 0x01B2	; 0x8001b2 <__brkval+0x1>
    2178:	28 17       	cp	r18, r24
    217a:	39 07       	cpc	r19, r25
    217c:	69 f4       	brne	.+26     	; 0x2198 <free+0x10c>
    217e:	30 97       	sbiw	r30, 0x00	; 0
    2180:	29 f4       	brne	.+10     	; 0x218c <free+0x100>
    2182:	10 92 b4 01 	sts	0x01B4, r1	; 0x8001b4 <__flp+0x1>
    2186:	10 92 b3 01 	sts	0x01B3, r1	; 0x8001b3 <__flp>
    218a:	02 c0       	rjmp	.+4      	; 0x2190 <free+0x104>
    218c:	13 82       	std	Z+3, r1	; 0x03
    218e:	12 82       	std	Z+2, r1	; 0x02
    2190:	b0 93 b2 01 	sts	0x01B2, r27	; 0x8001b2 <__brkval+0x1>
    2194:	a0 93 b1 01 	sts	0x01B1, r26	; 0x8001b1 <__brkval>
    2198:	df 91       	pop	r29
    219a:	cf 91       	pop	r28
    219c:	08 95       	ret

0000219e <__do_global_dtors>:
    219e:	10 e0       	ldi	r17, 0x00	; 0
    21a0:	c6 e5       	ldi	r28, 0x56	; 86
    21a2:	d0 e0       	ldi	r29, 0x00	; 0
    21a4:	04 c0       	rjmp	.+8      	; 0x21ae <__do_global_dtors+0x10>
    21a6:	fe 01       	movw	r30, r28
    21a8:	0e 94 a8 0f 	call	0x1f50	; 0x1f50 <__tablejump2__>
    21ac:	21 96       	adiw	r28, 0x01	; 1
    21ae:	c7 35       	cpi	r28, 0x57	; 87
    21b0:	d1 07       	cpc	r29, r17
    21b2:	c9 f7       	brne	.-14     	; 0x21a6 <__do_global_dtors+0x8>
    21b4:	f8 94       	cli

000021b6 <__stop_program>:
    21b6:	ff cf       	rjmp	.-2      	; 0x21b6 <__stop_program>
